(dp1
S'data'
p2
(lp3
(dp4
S'values'
p5
(lp6
(dp7
S'columnLabel'
p8
S'Microarray'
p9
sS'value'
p10
S'Negative'
p11
sa(dp12
g8
S'IHC'
p13
sg10
S'High'
p14
sasS'children'
p15
(lp16
sS'rowLabel'
p17
S'Erythropoietic cell'
p18
sa(dp19
g5
(lp20
(dp21
g8
g9
sg10
S'Low'
p22
sa(dp23
g8
g13
sg10
g22
sasg15
(lp24
sg17
S'Extraembryonic tissue and fluid'
p25
sa(dp26
g5
(lp27
(dp28
g8
g9
sg10
g11
sa(dp29
g8
g13
sg10
g11
sasg15
(lp30
sg17
S'Intestinal epithelium'
p31
sa(dp32
g5
(lp33
(dp34
g8
g9
sg10
g14
sa(dp35
g8
g13
sg10
g11
sasg15
(lp36
sg17
S'Intestinal mucosa'
p37
sa(dp38
g5
(lp39
(dp40
g8
g9
sg10
g11
sa(dp41
g8
g13
sg10
g14
sasg15
(lp42
sg17
S'Stromal cell'
p43
sa(dp44
g5
(lp45
(dp46
g8
g9
sg10
S'Moderate'
p47
sa(dp48
g8
g13
sg10
g11
sasg15
(lp49
sg17
S'Tooth bud'
p50
sa(dp51
g5
(lp52
(dp53
g8
g9
sg10
g22
sa(dp54
g8
g13
sg10
g11
sasg15
(lp55
sg17
S'Vascular endothelium'
p56
sa(dp57
g5
(lp58
(dp59
g8
g9
sg10
g47
sa(dp60
g8
g13
sg10
g14
sasg15
(lp61
sg17
S'Granulocytopoietic cell'
p62
sa(dp63
g5
(lp64
(dp65
g8
g9
sg10
g47
sa(dp66
g8
g13
sg10
g47
sasg15
(lp67
sg17
S'Acinar cell'
p68
sa(dp69
g5
(lp70
(dp71
g8
g9
sg10
g47
sa(dp72
g8
g13
sg10
g14
sasg15
(lp73
sg17
S'Monopoietic cell'
p74
sa(dp75
g5
(lp76
(dp77
g8
g9
sg10
g22
sa(dp78
g8
g13
sg10
g22
sasg15
(lp79
sg17
S'Nongranular leukocyte'
p80
sa(dp81
g5
(lp82
(dp83
g8
g9
sg10
g47
sa(dp84
g8
g13
sg10
g14
sasg15
(lp85
sg17
S'Hematopoietic and immune system cell'
p86
sa(dp87
g5
(lp88
(dp89
g8
g9
sg10
g47
sa(dp90
g8
g13
sg10
g11
sasg15
(lp91
sg17
S'Sperm cell'
p92
sa(dp93
g5
(lp94
(dp95
g8
g9
sg10
g22
sa(dp96
g8
g13
sg10
g11
sasg15
(lp97
sg17
S'Thrombocytopoietic cell'
p98
sa(dp99
g5
(lp100
(dp101
g8
g9
sg10
g11
sa(dp102
g8
g13
sg10
g22
sasg15
(lp103
sg17
S'Vascular system'
p104
sa(dp105
g5
(lp106
(dp107
g8
g9
sg10
g14
sa(dp108
g8
g13
sg10
g11
sasg15
(lp109
sg17
S'Immune cell'
p110
sa(dp111
g5
(lp112
(dp113
g8
g9
sg10
g14
sa(dp114
g8
g13
sg10
g47
sasg15
(lp115
sg17
S'Circulatory system'
p116
sa(dp117
g5
(lp118
(dp119
g8
g9
sg10
g22
sa(dp120
g8
g13
sg10
g47
sasg15
(lp121
sg17
S'Tooth germ'
p122
sa(dp123
g5
(lp124
(dp125
g8
g9
sg10
g14
sa(dp126
g8
g13
sg10
g14
sasg15
(lp127
sg17
S'Nongerminal center cells'
p128
sa(dp129
g5
(lp130
(dp131
g8
g9
sg10
g14
sa(dp132
g8
g13
sg10
g22
sasg15
(lp133
sg17
S'Post-menopause uterus glandular cell'
p134
sa(dp135
g5
(lp136
(dp137
g8
g9
sg10
g11
sa(dp138
g8
g13
sg10
g11
sasg15
(lp139
sg17
S'Post-menopause endometrium stroma'
p140
sa(dp141
g5
(lp142
(dp143
g8
g9
sg10
g22
sa(dp144
g8
g13
sg10
g47
sasg15
(lp145
sg17
S'Pre-menopause uterus glandular cell'
p146
sa(dp147
g5
(lp148
(dp149
g8
g9
sg10
g11
sa(dp150
g8
g13
sg10
g11
sasg15
(lp151
sg17
S'Pre-menopause endometrium stroma'
p152
sa(dp153
g5
(lp154
(dp155
g8
g9
sg10
g22
sa(dp156
g8
g13
sg10
g47
sasg15
(lp157
(dp158
g5
(lp159
(dp160
g8
g9
sg10
g11
sa(dp161
g8
g13
sg10
g14
sasg15
(lp162
(dp163
g5
(lp164
(dp165
g8
g9
sg10
g14
sa(dp166
g8
g13
sg10
g14
sasg15
(lp167
(dp168
g5
(lp169
(dp170
g8
g9
sg10
g47
sa(dp171
g8
g13
sg10
g22
sasg15
(lp172
sg17
S'Neural progenitor cell'
p173
sa(dp174
g5
(lp175
(dp176
g8
g9
sg10
g22
sa(dp177
g8
g13
sg10
g47
sasg15
(lp178
(dp179
g5
(lp180
(dp181
g8
g9
sg10
g14
sa(dp182
g8
g13
sg10
g11
sasg15
(lp183
sg17
S'Schwann cell'
p184
sa(dp185
g5
(lp186
(dp187
g8
g9
sg10
g11
sa(dp188
g8
g13
sg10
g11
sasg15
(lp189
sg17
S'Cerebral cortex glial cell'
p190
sa(dp191
g5
(lp192
(dp193
g8
g9
sg10
g47
sa(dp194
g8
g13
sg10
g47
sasg15
(lp195
sg17
S'Hippocampus glial cell'
p196
sa(dp197
g5
(lp198
(dp199
g8
g9
sg10
g11
sa(dp200
g8
g13
sg10
g14
sasg15
(lp201
sg17
S'Lateral ventricle glial cell'
p202
sa(dp203
g5
(lp204
(dp205
g8
g9
sg10
g14
sa(dp206
g8
g13
sg10
g47
sasg15
(lp207
(dp208
g5
(lp209
(dp210
g8
g9
sg10
g22
sa(dp211
g8
g13
sg10
g22
sasg15
(lp212
sg17
S'Brain macroglia'
p213
sa(dp214
g5
(lp215
(dp216
g8
g9
sg10
g22
sa(dp217
g8
g13
sg10
g47
sasg15
(lp218
sg17
S'Spinal cord macroglia'
p219
sa(dp220
g5
(lp221
(dp222
g8
g9
sg10
g22
sa(dp223
g8
g13
sg10
g14
sasg15
(lp224
sg17
S'Astrocyte'
p225
sa(dp226
g5
(lp227
(dp228
g8
g9
sg10
g11
sa(dp229
g8
g13
sg10
g47
sasg15
(lp230
sg17
S'Oligodendrocyte'
p231
sasg17
S'Macroglia'
p232
sasg17
S'Glial cell'
p233
sa(dp234
g5
(lp235
(dp236
g8
g9
sg10
g14
sa(dp237
g8
g13
sg10
g11
sasg15
(lp238
(dp239
g5
(lp240
(dp241
g8
g9
sg10
g14
sa(dp242
g8
g13
sg10
g47
sasg15
(lp243
sg17
S'Purkinje cell'
p244
sa(dp245
g5
(lp246
(dp247
g8
g9
sg10
g14
sa(dp248
g8
g13
sg10
g11
sasg15
(lp249
sg17
S'Cerebral cortex neuron'
p250
sa(dp251
g5
(lp252
(dp253
g8
g9
sg10
g11
sa(dp254
g8
g13
sg10
g47
sasg15
(lp255
sg17
S'Hippocampus neuron'
p256
sa(dp257
g5
(lp258
(dp259
g8
g9
sg10
g22
sa(dp260
g8
g13
sg10
g11
sasg15
(lp261
sg17
S'Lateral ventricle neuron'
p262
sa(dp263
g5
(lp264
(dp265
g8
g9
sg10
g14
sa(dp266
g8
g13
sg10
g11
sasg15
(lp267
sg17
S'Cerebellar neuron'
p268
sa(dp269
g5
(lp270
(dp271
g8
g9
sg10
g14
sa(dp272
g8
g13
sg10
g47
sasg15
(lp273
sg17
S'Motor neuron'
p274
sa(dp275
g5
(lp276
(dp277
g8
g9
sg10
g47
sa(dp278
g8
g13
sg10
g14
sasg15
(lp279
sg17
S'Sensory neuron'
p280
sasg17
S'Neuron'
p281
sa(dp282
g5
(lp283
(dp284
g8
g9
sg10
g47
sa(dp285
g8
g13
sg10
g22
sasg15
(lp286
sg17
S'Retinal ganglion'
p287
sa(dp288
g5
(lp289
(dp290
g8
g9
sg10
g22
sa(dp291
g8
g13
sg10
g22
sasg15
(lp292
(dp293
g5
(lp294
(dp295
g8
g9
sg10
g47
sa(dp296
g8
g13
sg10
g22
sasg15
(lp297
sg17
S'Retinal rod cell'
p298
sa(dp299
g5
(lp300
(dp301
g8
g9
sg10
g11
sa(dp302
g8
g13
sg10
g14
sasg15
(lp303
sg17
S'Retinal cone cell'
p304
sasg17
S'Retinal photoreceptor'
p305
sasg17
S'Nervous system cell'
p306
sa(dp307
g5
(lp308
(dp309
g8
g9
sg10
g11
sa(dp310
g8
g13
sg10
g47
sasg15
(lp311
(dp312
g5
(lp313
(dp314
g8
g9
sg10
g22
sa(dp315
g8
g13
sg10
g14
sasg15
(lp316
sg17
S'Neural stem cell'
p317
sa(dp318
g5
(lp319
(dp320
g8
g9
sg10
g11
sa(dp321
g8
g13
sg10
g11
sasg15
(lp322
sg17
S'Hemangioblast'
p323
sa(dp324
g5
(lp325
(dp326
g8
g9
sg10
g22
sa(dp327
g8
g13
sg10
g47
sasg15
(lp328
sg17
S'Embryonic stem cell'
p329
sa(dp330
g5
(lp331
(dp332
g8
g9
sg10
g47
sa(dp333
g8
g13
sg10
g14
sasg15
(lp334
sg17
S'Mesenchymal stem cell'
p335
sa(dp336
g5
(lp337
(dp338
g8
g9
sg10
g11
sa(dp339
g8
g13
sg10
g22
sasg15
(lp340
sg17
S'Myoblast'
p341
sasg17
S'Stem cell'
p342
sa(dp343
g5
(lp344
(dp345
g8
g9
sg10
g11
sa(dp346
g8
g13
sg10
g11
sasg15
(lp347
(dp348
g5
(lp349
(dp350
g8
g9
sg10
g22
sa(dp351
g8
g13
sg10
g11
sasg15
(lp352
(dp353
g5
(lp354
(dp355
g8
g9
sg10
g22
sa(dp356
g8
g13
sg10
g14
sasg15
(lp357
sg17
S'Osteoblast'
p358
sa(dp359
g5
(lp360
(dp361
g8
g9
sg10
g47
sa(dp362
g8
g13
sg10
g14
sasg15
(lp363
sg17
S'Osteoclast'
p364
sa(dp365
g5
(lp366
(dp367
g8
g9
sg10
g14
sa(dp368
g8
g13
sg10
g47
sasg15
(lp369
sg17
S'Osteocyte'
p370
sasg17
S'Bone cell'
p371
sa(dp372
g5
(lp373
(dp374
g8
g9
sg10
g22
sa(dp375
g8
g13
sg10
g47
sasg15
(lp376
sg17
S'Chondroblast'
p377
sa(dp378
g5
(lp379
(dp380
g8
g9
sg10
g11
sa(dp381
g8
g13
sg10
g22
sasg15
(lp382
(dp383
g5
(lp384
(dp385
g8
g9
sg10
g22
sa(dp386
g8
g13
sg10
g14
sasg15
(lp387
sg17
S'Breast adipocyte'
p388
sasg17
S'Adipocyte'
p389
sa(dp390
g5
(lp391
(dp392
g8
g9
sg10
g47
sa(dp393
g8
g13
sg10
g14
sasg15
(lp394
(dp395
g5
(lp396
(dp397
g8
g9
sg10
g14
sa(dp398
g8
g13
sg10
g14
sasg15
(lp399
sg17
S'Articular chondrocyte'
p400
sasg17
S'Chondrocyte'
p401
sa(dp402
g5
(lp403
(dp404
g8
g9
sg10
g22
sa(dp405
g8
g13
sg10
g11
sasg15
(lp406
(dp407
g5
(lp408
(dp409
g8
g9
sg10
g11
sa(dp410
g8
g13
sg10
g14
sasg15
(lp411
sg17
S'Lung fibroblast'
p412
sa(dp413
g5
(lp414
(dp415
g8
g9
sg10
g11
sa(dp416
g8
g13
sg10
g11
sasg15
(lp417
sg17
S'Mammary fibroblast'
p418
sa(dp419
g5
(lp420
(dp421
g8
g9
sg10
g22
sa(dp422
g8
g13
sg10
g22
sasg15
(lp423
sg17
S'Muscle fibroblast'
p424
sa(dp425
g5
(lp426
(dp427
g8
g9
sg10
g11
sa(dp428
g8
g13
sg10
g47
sasg15
(lp429
(dp430
g5
(lp431
(dp432
g8
g9
sg10
g14
sa(dp433
g8
g13
sg10
g22
sasg15
(lp434
sg17
S'Foreskin fibroblast'
p435
sasg17
S'Skin fibroblast'
p436
sa(dp437
g5
(lp438
(dp439
g8
g9
sg10
g22
sa(dp440
g8
g13
sg10
g14
sasg15
(lp441
sg17
S'Corneal fibroblast'
p442
sasg17
S'Fibroblast'
p443
sa(dp444
g5
(lp445
(dp446
g8
g9
sg10
g14
sa(dp447
g8
g13
sg10
g14
sasg15
(lp448
sg17
S'Mesangial cell'
p449
sa(dp450
g5
(lp451
(dp452
g8
g9
sg10
g47
sa(dp453
g8
g13
sg10
g22
sasg15
(lp454
sg17
S'Odontoblast'
p455
sa(dp456
g5
(lp457
(dp458
g8
g9
sg10
g11
sa(dp459
g8
g13
sg10
g22
sasg15
(lp460
sg17
S'Synovial cell'
p461
sa(dp462
g5
(lp463
(dp464
g8
g9
sg10
g22
sa(dp465
g8
g13
sg10
g47
sasg15
(lp466
sg17
S'Cementoblast'
p467
sasg17
S'Connective tissue cell'
p468
sa(dp469
g5
(lp470
(dp471
g8
g9
sg10
g11
sa(dp472
g8
g13
sg10
g47
sasg15
(lp473
sg17
S'Interstitial cell of Cajal'
p474
sa(dp475
g5
(lp476
(dp477
g8
g9
sg10
g47
sa(dp478
g8
g13
sg10
g11
sasg15
(lp479
sg17
S'Myofibroblast cell'
p480
sa(dp481
g5
(lp482
(dp483
g8
g9
sg10
g47
sa(dp484
g8
g13
sg10
g22
sasg15
(lp485
sg17
S'Migratory neural crest cell'
p486
sa(dp487
g5
(lp488
(dp489
g8
g9
sg10
g14
sa(dp490
g8
g13
sg10
g47
sasg15
(lp491
(dp492
g5
(lp493
(dp494
g8
g9
sg10
g22
sa(dp495
g8
g13
sg10
g11
sasg15
(lp496
sg17
S'Embryonic lung fibroblast'
p497
sasg17
S'Embryonic fibroblast'
p498
sa(dp499
g5
(lp500
(dp501
g8
g9
sg10
g14
sa(dp502
g8
g13
sg10
g47
sasg15
(lp503
sg17
S'Fetal astrocyte'
p504
sa(dp505
g5
(lp506
(dp507
g8
g9
sg10
g22
sa(dp508
g8
g13
sg10
g47
sasg15
(lp509
sg17
S'Fetal B-cell'
p510
sa(dp511
g5
(lp512
(dp513
g8
g9
sg10
g22
sa(dp514
g8
g13
sg10
g11
sasg15
(lp515
(dp516
g5
(lp517
(dp518
g8
g9
sg10
g47
sa(dp519
g8
g13
sg10
g47
sasg15
(lp520
sg17
S'Fetal lung fibroblast'
p521
sasg17
S'Fetal fibroblast'
p522
sa(dp523
g5
(lp524
(dp525
g8
g9
sg10
g14
sa(dp526
g8
g13
sg10
g11
sasg15
(lp527
(dp528
g5
(lp529
(dp530
g8
g9
sg10
g11
sa(dp531
g8
g13
sg10
g22
sasg15
(lp532
(dp533
g5
(lp534
(dp535
g8
g9
sg10
g14
sa(dp536
g8
g13
sg10
g14
sasg15
(lp537
(dp538
g5
(lp539
(dp540
g8
g9
sg10
g14
sa(dp541
g8
g13
sg10
g14
sasg15
(lp542
sg17
S'Primary oocyte'
p543
sa(dp544
g5
(lp545
(dp546
g8
g9
sg10
g11
sa(dp547
g8
g13
sg10
g14
sasg15
(lp548
sg17
S'Secondary oocyte'
p549
sasg17
S'Oocyte'
p550
sa(dp551
g5
(lp552
(dp553
g8
g9
sg10
g22
sa(dp554
g8
g13
sg10
g47
sasg15
(lp555
sg17
S'Ovum'
p556
sasg17
S'Female germ cell'
p557
sa(dp558
g5
(lp559
(dp560
g8
g9
sg10
g47
sa(dp561
g8
g13
sg10
g14
sasg15
(lp562
(dp563
g5
(lp564
(dp565
g8
g9
sg10
g47
sa(dp566
g8
g13
sg10
g11
sasg15
(lp567
sg17
S'Spermatozoon'
p568
sa(dp569
g5
(lp570
(dp571
g8
g9
sg10
g22
sa(dp572
g8
g13
sg10
g22
sasg15
(lp573
sg17
S'Spermatid'
p574
sa(dp575
g5
(lp576
(dp577
g8
g9
sg10
g11
sa(dp578
g8
g13
sg10
g22
sasg15
(lp579
(dp580
g5
(lp581
(dp582
g8
g9
sg10
g11
sa(dp583
g8
g13
sg10
g22
sasg15
(lp584
(dp585
g5
(lp586
(dp587
g8
g9
sg10
g11
sa(dp588
g8
g13
sg10
g14
sasg15
(lp589
sg17
S'Pachytene spermatocyte'
p590
sasg17
S'Primary spermatocyte'
p591
sa(dp592
g5
(lp593
(dp594
g8
g9
sg10
g14
sa(dp595
g8
g13
sg10
g47
sasg15
(lp596
sg17
S'Secondary spermatocyte'
p597
sasg17
S'Spermatocyte'
p598
sa(dp599
g5
(lp600
(dp601
g8
g9
sg10
g11
sa(dp602
g8
g13
sg10
g47
sasg15
(lp603
sg17
S'Spermatogonia'
p604
sasg17
S'Male germ cell'
p605
sa(dp606
g5
(lp607
(dp608
g8
g9
sg10
g47
sa(dp609
g8
g13
sg10
g47
sasg15
(lp610
sg17
S'Gamete'
p611
sasg17
S'Germ cell'
p612
sa(dp613
g5
(lp614
(dp615
g8
g9
sg10
g14
sa(dp616
g8
g13
sg10
g22
sasg15
(lp617
(dp618
g5
(lp619
(dp620
g8
g9
sg10
g14
sa(dp621
g8
g13
sg10
g11
sasg15
(lp622
sg17
S'Skin Melanocyte'
p623
sasg17
S'Melanocyte'
p624
sa(dp625
g5
(lp626
(dp627
g8
g9
sg10
g22
sa(dp628
g8
g13
sg10
g11
sasg15
(lp629
sg17
S'Ovarian granulosa cell'
p630
sa(dp631
g5
(lp632
(dp633
g8
g9
sg10
g11
sa(dp634
g8
g13
sg10
g14
sasg15
(lp635
sg17
S'Leydig cell'
p636
sa(dp637
g5
(lp638
(dp639
g8
g9
sg10
g14
sa(dp640
g8
g13
sg10
g14
sasg15
(lp641
sg17
S'Cajal-Retzius cell'
p642
sa(dp643
g5
(lp644
(dp645
g8
g9
sg10
g11
sa(dp646
g8
g13
sg10
g22
sasg15
(lp647
(dp648
g5
(lp649
(dp650
g8
g9
sg10
g11
sa(dp651
g8
g13
sg10
g11
sasg15
(lp652
(dp653
g5
(lp654
(dp655
g8
g9
sg10
g22
sa(dp656
g8
g13
sg10
g22
sasg15
(lp657
sg17
S'Erythroblast'
p658
sa(dp659
g5
(lp660
(dp661
g8
g9
sg10
g47
sa(dp662
g8
g13
sg10
g47
sasg15
(lp663
(dp664
g5
(lp665
(dp666
g8
g9
sg10
g14
sa(dp667
g8
g13
sg10
g22
sasg15
(lp668
sg17
S'Lymphoid stem cell'
p669
sa(dp670
g5
(lp671
(dp672
g8
g9
sg10
g14
sa(dp673
g8
g13
sg10
g47
sasg15
(lp674
sg17
S'Myeloid stem cell'
p675
sasg17
S'Hematopoietic stem cell'
p676
sa(dp677
g5
(lp678
(dp679
g8
g9
sg10
g47
sa(dp680
g8
g13
sg10
g14
sasg15
(lp681
(dp682
g5
(lp683
(dp684
g8
g9
sg10
g22
sa(dp685
g8
g13
sg10
g11
sasg15
(lp686
sg17
S'T lymphoblast'
p687
sa(dp688
g5
(lp689
(dp690
g8
g9
sg10
g47
sa(dp691
g8
g13
sg10
g11
sasg15
(lp692
sg17
S'B Lymphoblast'
p693
sasg17
S'Lymphoblast'
p694
sa(dp695
g5
(lp696
(dp697
g8
g9
sg10
g22
sa(dp698
g8
g13
sg10
g11
sasg15
(lp699
sg17
S'Megakaryoblast'
p700
sa(dp701
g5
(lp702
(dp703
g8
g9
sg10
g14
sa(dp704
g8
g13
sg10
g11
sasg15
(lp705
sg17
S'Megakaryocyte'
p706
sasg17
S'Bone marrow hematopoietic cell'
p707
sa(dp708
g5
(lp709
(dp710
g8
g9
sg10
g14
sa(dp711
g8
g13
sg10
g22
sasg15
(lp712
(dp713
g5
(lp714
(dp715
g8
g9
sg10
g22
sa(dp716
g8
g13
sg10
g11
sasg15
(lp717
sg17
S'Plasmacytoid dendritic cell'
p718
sa(dp719
g5
(lp720
(dp721
g8
g9
sg10
g47
sa(dp722
g8
g13
sg10
g47
sasg15
(lp723
(dp724
g5
(lp725
(dp726
g8
g9
sg10
g14
sa(dp727
g8
g13
sg10
g47
sasg15
(lp728
(dp729
g5
(lp730
(dp731
g8
g9
sg10
g14
sa(dp732
g8
g13
sg10
g47
sasg15
(lp733
sg17
S'Skin Langerhans cell'
p734
sasg17
S'Langerhans cell'
p735
sasg17
S'Conventional dendritic cell'
p736
sa(dp737
g5
(lp738
(dp739
g8
g9
sg10
g14
sa(dp740
g8
g13
sg10
g22
sasg15
(lp741
sg17
S'Cortical thymic dendritic cell CD11c-positive'
p742
sa(dp743
g5
(lp744
(dp745
g8
g9
sg10
g47
sa(dp746
g8
g13
sg10
g47
sasg15
(lp747
sg17
S'Cortical thymic dendritic cell CD303-positive'
p748
sa(dp749
g5
(lp750
(dp751
g8
g9
sg10
g11
sa(dp752
g8
g13
sg10
g14
sasg15
(lp753
sg17
S'Cortical thymic dendritic cell CD209-positive'
p754
sasg17
S'Dendritic cell'
p755
sa(dp756
g5
(lp757
(dp758
g8
g9
sg10
g11
sa(dp759
g8
g13
sg10
g22
sasg15
(lp760
(dp761
g5
(lp762
(dp763
g8
g9
sg10
g14
sa(dp764
g8
g13
sg10
g47
sasg15
(lp765
(dp766
g5
(lp767
(dp768
g8
g9
sg10
g22
sa(dp769
g8
g13
sg10
g14
sasg15
(lp770
sg17
S'Peripheral blood lymphocyte'
p771
sa(dp772
g5
(lp773
(dp774
g8
g9
sg10
g11
sa(dp775
g8
g13
sg10
g47
sasg15
(lp776
sg17
S'Peripheral blood monocyte'
p777
sa(dp778
g5
(lp779
(dp780
g8
g9
sg10
g47
sa(dp781
g8
g13
sg10
g11
sasg15
(lp782
sg17
S'Peripheral blood mononuclear cell'
p783
sa(dp784
g5
(lp785
(dp786
g8
g9
sg10
g22
sa(dp787
g8
g13
sg10
g47
sasg15
(lp788
(dp789
g5
(lp790
(dp791
g8
g9
sg10
g11
sa(dp792
g8
g13
sg10
g47
sasg15
(lp793
sg17
S'Peripheral blood neutrophil'
p794
sasg17
S'Peripheral blood granulocyte'
p795
sasg17
S'Peripheral blood leukocyte'
p796
sa(dp797
g5
(lp798
(dp799
g8
g9
sg10
g11
sa(dp800
g8
g13
sg10
g47
sasg15
(lp801
(dp802
g5
(lp803
(dp804
g8
g9
sg10
g47
sa(dp805
g8
g13
sg10
g11
sasg15
(lp806
sg17
S'Tonsil lymphoid cell'
p807
sa(dp808
g5
(lp809
(dp810
g8
g9
sg10
g14
sa(dp811
g8
g13
sg10
g47
sasg15
(lp812
(dp813
g5
(lp814
(dp815
g8
g9
sg10
g11
sa(dp816
g8
g13
sg10
g11
sasg15
(lp817
sg17
S'Lymph node nongerminal center cell'
p818
sa(dp819
g5
(lp820
(dp821
g8
g9
sg10
g47
sa(dp822
g8
g13
sg10
g22
sasg15
(lp823
sg17
S'Lymph node germinal center cell'
p824
sasg17
S'Lymph node lymphoid cell'
p825
sa(dp826
g5
(lp827
(dp828
g8
g9
sg10
g11
sa(dp829
g8
g13
sg10
g22
sasg15
(lp830
(dp831
g5
(lp832
(dp833
g8
g9
sg10
g22
sa(dp834
g8
g13
sg10
g14
sasg15
(lp835
(dp836
g5
(lp837
(dp838
g8
g9
sg10
g22
sa(dp839
g8
g13
sg10
g14
sasg15
(lp840
sg17
S'Thymocyte'
p841
sa(dp842
g5
(lp843
(dp844
g8
g9
sg10
g22
sa(dp845
g8
g13
sg10
g14
sasg15
(lp846
(dp847
g5
(lp848
(dp849
g8
g9
sg10
g47
sa(dp850
g8
g13
sg10
g11
sasg15
(lp851
sg17
S'CD4-positive helper T cell'
p852
sasg17
S'Helper T-cell'
p853
sa(dp854
g5
(lp855
(dp856
g8
g9
sg10
g47
sa(dp857
g8
g13
sg10
g47
sasg15
(lp858
(dp859
g5
(lp860
(dp861
g8
g9
sg10
g11
sa(dp862
g8
g13
sg10
g47
sasg15
(lp863
sg17
S'Type I NK T cell'
p864
sasg17
S'Natural killer T cell'
p865
sa(dp866
g5
(lp867
(dp868
g8
g9
sg10
g22
sa(dp869
g8
g13
sg10
g11
sasg15
(lp870
sg17
S'Gamma delta T cells'
p871
sa(dp872
g5
(lp873
(dp874
g8
g9
sg10
g11
sa(dp875
g8
g13
sg10
g47
sasg15
(lp876
sg17
S'Regulatory T cell'
p877
sa(dp878
g5
(lp879
(dp880
g8
g9
sg10
g22
sa(dp881
g8
g13
sg10
g11
sasg15
(lp882
sg17
S'CD8-Positive T-Lymphocytes'
p883
sa(dp884
g5
(lp885
(dp886
g8
g9
sg10
g11
sa(dp887
g8
g13
sg10
g22
sasg15
(lp888
sg17
S'Cytotoxic T-cell'
p889
sa(dp890
g5
(lp891
(dp892
g8
g9
sg10
g11
sa(dp893
g8
g13
sg10
g11
sasg15
(lp894
sg17
S'Peripheral blood T-cell'
p895
sasg17
S'T-cell'
p896
sa(dp897
g5
(lp898
(dp899
g8
g9
sg10
g22
sa(dp900
g8
g13
sg10
g14
sasg15
(lp901
(dp902
g5
(lp903
(dp904
g8
g9
sg10
g47
sa(dp905
g8
g13
sg10
g47
sasg15
(lp906
sg17
S'Pre-B cell'
p907
sasg17
S'B-cell'
p908
sasg17
S'Lymphocyte'
p909
sa(dp910
g5
(lp911
(dp912
g8
g9
sg10
g11
sa(dp913
g8
g13
sg10
g22
sasg15
(lp914
sg17
S'Natural killer cell'
p915
sasg17
S'Lymphoid cell'
p916
sasg17
S'Leukocyte'
p917
sa(dp918
g5
(lp919
(dp920
g8
g9
sg10
g11
sa(dp921
g8
g13
sg10
g11
sasg15
(lp922
(dp923
g5
(lp924
(dp925
g8
g9
sg10
g47
sa(dp926
g8
g13
sg10
g22
sasg15
(lp927
sg17
S'Platelet'
p928
sa(dp929
g5
(lp930
(dp931
g8
g9
sg10
g11
sa(dp932
g8
g13
sg10
g11
sasg15
(lp933
sg17
S'Reticulocyte'
p934
sa(dp935
g5
(lp936
(dp937
g8
g9
sg10
g14
sa(dp938
g8
g13
sg10
g11
sasg15
(lp939
(dp940
g5
(lp941
(dp942
g8
g9
sg10
g22
sa(dp943
g8
g13
sg10
g11
sasg15
(lp944
(dp945
g5
(lp946
(dp947
g8
g9
sg10
g22
sa(dp948
g8
g13
sg10
g14
sasg15
(lp949
sg17
S'Neutrophil'
p950
sa(dp951
g5
(lp952
(dp953
g8
g9
sg10
g11
sa(dp954
g8
g13
sg10
g47
sasg15
(lp955
sg17
S'Basophil'
p956
sa(dp957
g5
(lp958
(dp959
g8
g9
sg10
g47
sa(dp960
g8
g13
sg10
g14
sasg15
(lp961
sg17
S'Eosinophil'
p962
sasg17
S'Granulocyte'
p963
sa(dp964
g5
(lp965
(dp966
g8
g9
sg10
g47
sa(dp967
g8
g13
sg10
g47
sasg15
(lp968
(dp969
g5
(lp970
(dp971
g8
g9
sg10
g11
sa(dp972
g8
g13
sg10
g14
sasg15
(lp973
(dp974
g5
(lp975
(dp976
g8
g9
sg10
g47
sa(dp977
g8
g13
sg10
g22
sasg15
(lp978
sg17
S'Brain microglia'
p979
sa(dp980
g5
(lp981
(dp982
g8
g9
sg10
g47
sa(dp983
g8
g13
sg10
g14
sasg15
(lp984
sg17
S'Spinal cord microglia'
p985
sasg17
S'Microglia'
p986
sa(dp987
g5
(lp988
(dp989
g8
g9
sg10
g47
sa(dp990
g8
g13
sg10
g22
sasg15
(lp991
sg17
S'Splenocyte'
p992
sa(dp993
g5
(lp994
(dp995
g8
g9
sg10
g11
sa(dp996
g8
g13
sg10
g22
sasg15
(lp997
(dp998
g5
(lp999
(dp1000
g8
g9
sg10
g22
sa(dp1001
g8
g13
sg10
g47
sasg15
(lp1002
sg17
S'Hepatic stellate cell'
p1003
sasg17
S'Histiocyte'
p1004
sa(dp1005
g5
(lp1006
(dp1007
g8
g9
sg10
g47
sa(dp1008
g8
g13
sg10
g22
sasg15
(lp1009
sg17
S'Lung macrophage'
p1010
sasg17
S'Macrophage'
p1011
sa(dp1012
g5
(lp1013
(dp1014
g8
g9
sg10
g11
sa(dp1015
g8
g13
sg10
g11
sasg15
(lp1016
sg17
S'Mast cell'
p1017
sa(dp1018
g5
(lp1019
(dp1020
g8
g9
sg10
g14
sa(dp1021
g8
g13
sg10
g47
sasg15
(lp1022
sg17
S'Monocyte'
p1023
sa(dp1024
g5
(lp1025
(dp1026
g8
g9
sg10
g14
sa(dp1027
g8
g13
sg10
g47
sasg15
(lp1028
sg17
S'Promyelocyte'
p1029
sa(dp1030
g5
(lp1031
(dp1032
g8
g9
sg10
g47
sa(dp1033
g8
g13
sg10
g11
sasg15
(lp1034
sg17
S'Monoblast'
p1035
sasg17
S'Myeloid leukocyte'
p1036
sa(dp1037
g5
(lp1038
(dp1039
g8
g9
sg10
g11
sa(dp1040
g8
g13
sg10
g22
sasg15
(lp1041
sg17
S'Erythrocyte'
p1042
sasg17
S'Myeloid cell'
p1043
sasg17
S'Hematopoietic cell'
p1044
sa(dp1045
g5
(lp1046
(dp1047
g8
g9
sg10
g22
sa(dp1048
g8
g13
sg10
g14
sasg15
(lp1049
(dp1050
g5
(lp1051
(dp1052
g8
g9
sg10
g47
sa(dp1053
g8
g13
sg10
g11
sasg15
(lp1054
(dp1055
g5
(lp1056
(dp1057
g8
g9
sg10
g22
sa(dp1058
g8
g13
sg10
g47
sasg15
(lp1059
(dp1060
g5
(lp1061
(dp1062
g8
g9
sg10
g47
sa(dp1063
g8
g13
sg10
g22
sasg15
(lp1064
sg17
S'Thyroid follicular cell'
p1065
sasg17
S'Thyroid gland glandular cell'
p1066
sa(dp1067
g5
(lp1068
(dp1069
g8
g9
sg10
g14
sa(dp1070
g8
g13
sg10
g11
sasg15
(lp1071
sg17
S'Adrenal gland glandular cell'
p1072
sa(dp1073
g5
(lp1074
(dp1075
g8
g9
sg10
g14
sa(dp1076
g8
g13
sg10
g11
sasg15
(lp1077
sg17
S'Endometrial glandular cell'
p1078
sa(dp1079
g5
(lp1080
(dp1081
g8
g9
sg10
g22
sa(dp1082
g8
g13
sg10
g47
sasg15
(lp1083
(dp1084
g5
(lp1085
(dp1086
g8
g9
sg10
g22
sa(dp1087
g8
g13
sg10
g22
sasg15
(lp1088
sg17
S'Pancreatic acinar cell'
p1089
sasg17
S'Pancreas exocrine glandular cell'
p1090
sa(dp1091
g5
(lp1092
(dp1093
g8
g9
sg10
g47
sa(dp1094
g8
g13
sg10
g22
sasg15
(lp1095
sg17
S'Appendix glandular cell'
p1096
sa(dp1097
g5
(lp1098
(dp1099
g8
g9
sg10
g14
sa(dp1100
g8
g13
sg10
g14
sasg15
(lp1101
sg17
S'Mammary gland glandular cell'
p1102
sa(dp1103
g5
(lp1104
(dp1105
g8
g9
sg10
g47
sa(dp1106
g8
g13
sg10
g22
sasg15
(lp1107
sg17
S'Uterine cervix glandular cell'
p1108
sa(dp1109
g5
(lp1110
(dp1111
g8
g9
sg10
g14
sa(dp1112
g8
g13
sg10
g14
sasg15
(lp1113
sg17
S'Colon glandular cell'
p1114
sa(dp1115
g5
(lp1116
(dp1117
g8
g9
sg10
g22
sa(dp1118
g8
g13
sg10
g47
sasg15
(lp1119
sg17
S'Duodenum glandular cell'
p1120
sa(dp1121
g5
(lp1122
(dp1123
g8
g9
sg10
g22
sa(dp1124
g8
g13
sg10
g47
sasg15
(lp1125
sg17
S'Epididymis glandular cell'
p1126
sa(dp1127
g5
(lp1128
(dp1129
g8
g9
sg10
g11
sa(dp1130
g8
g13
sg10
g14
sasg15
(lp1131
sg17
S'Oviduct glandular cell'
p1132
sa(dp1133
g5
(lp1134
(dp1135
g8
g9
sg10
g11
sa(dp1136
g8
g13
sg10
g14
sasg15
(lp1137
sg17
S'Gall bladder glandular cell'
p1138
sa(dp1139
g5
(lp1140
(dp1141
g8
g9
sg10
g22
sa(dp1142
g8
g13
sg10
g11
sasg15
(lp1143
(dp1144
g5
(lp1145
(dp1146
g8
g9
sg10
g11
sa(dp1147
g8
g13
sg10
g11
sasg15
(lp1148
sg17
S'Parathyroid chief cell'
p1149
sasg17
S'Parathyroid glandular cell'
p1150
sa(dp1151
g5
(lp1152
(dp1153
g8
g9
sg10
g14
sa(dp1154
g8
g13
sg10
g22
sasg15
(lp1155
sg17
S'Prostate glandular cell'
p1156
sa(dp1157
g5
(lp1158
(dp1159
g8
g9
sg10
g47
sa(dp1160
g8
g13
sg10
g14
sasg15
(lp1161
sg17
S'Rectum glandular cell'
p1162
sa(dp1163
g5
(lp1164
(dp1165
g8
g9
sg10
g22
sa(dp1166
g8
g13
sg10
g47
sasg15
(lp1167
sg17
S'Salivary gland glandular cell'
p1168
sa(dp1169
g5
(lp1170
(dp1171
g8
g9
sg10
g14
sa(dp1172
g8
g13
sg10
g22
sasg15
(lp1173
sg17
S'Seminal vesicle glandular cell'
p1174
sa(dp1175
g5
(lp1176
(dp1177
g8
g9
sg10
g47
sa(dp1178
g8
g13
sg10
g14
sasg15
(lp1179
sg17
S'Stomach glandular cell'
p1180
sa(dp1181
g5
(lp1182
(dp1183
g8
g9
sg10
g11
sa(dp1184
g8
g13
sg10
g11
sasg15
(lp1185
sg17
S'Small intestine glandular cell'
p1186
sa(dp1187
g5
(lp1188
(dp1189
g8
g9
sg10
g47
sa(dp1190
g8
g13
sg10
g11
sasg15
(lp1191
sg17
S'Uterine corpus glandular cell'
p1192
sasg17
S'Glandular cell'
p1193
sa(dp1194
g5
(lp1195
(dp1196
g8
g9
sg10
g22
sa(dp1197
g8
g13
sg10
g47
sasg15
(lp1198
(dp1199
g5
(lp1200
(dp1201
g8
g9
sg10
g11
sa(dp1202
g8
g13
sg10
g47
sasg15
(lp1203
sg17
S'Mammary gland myoepithelial cell'
p1204
sasg17
S'Myoepithelial cell'
p1205
sa(dp1206
g5
(lp1207
(dp1208
g8
g9
sg10
g14
sa(dp1209
g8
g13
sg10
g14
sasg15
(lp1210
sg17
S'Nasopharyngeal epithelial cell'
p1211
sa(dp1212
g5
(lp1213
(dp1214
g8
g9
sg10
g22
sa(dp1215
g8
g13
sg10
g22
sasg15
(lp1216
sg17
S'Bronchus epithelial cell'
p1217
sa(dp1218
g5
(lp1219
(dp1220
g8
g9
sg10
g14
sa(dp1221
g8
g13
sg10
g47
sasg15
(lp1222
(dp1223
g5
(lp1224
(dp1225
g8
g9
sg10
g47
sa(dp1226
g8
g13
sg10
g47
sasg15
(lp1227
sg17
S'Vascular endothelial cell'
p1228
sa(dp1229
g5
(lp1230
(dp1231
g8
g9
sg10
g47
sa(dp1232
g8
g13
sg10
g11
sasg15
(lp1233
sg17
S'Cerebral cortex endothelial cell'
p1234
sa(dp1235
g5
(lp1236
(dp1237
g8
g9
sg10
g14
sa(dp1238
g8
g13
sg10
g47
sasg15
(lp1239
sg17
S'Colon endothelial cell'
p1240
sasg17
S'Endothelial cell'
p1241
sa(dp1242
g5
(lp1243
(dp1244
g8
g9
sg10
g14
sa(dp1245
g8
g13
sg10
g47
sasg15
(lp1246
sg17
S'Peritubular myoid cell'
p1247
sa(dp1248
g5
(lp1249
(dp1250
g8
g9
sg10
g14
sa(dp1251
g8
g13
sg10
g47
sasg15
(lp1252
sg17
S'Cortical thymic epithelial cell'
p1253
sa(dp1254
g5
(lp1255
(dp1256
g8
g9
sg10
g47
sa(dp1257
g8
g13
sg10
g47
sasg15
(lp1258
sg17
S'Hepatocyte'
p1259
sa(dp1260
g5
(lp1261
(dp1262
g8
g9
sg10
g14
sa(dp1263
g8
g13
sg10
g11
sasg15
(lp1264
(dp1265
g5
(lp1266
(dp1267
g8
g9
sg10
g22
sa(dp1268
g8
g13
sg10
g14
sasg15
(lp1269
sg17
S'Foreskin keratinocyte'
p1270
sasg17
S'Keratinocyte'
p1271
sa(dp1272
g5
(lp1273
(dp1274
g8
g9
sg10
g11
sa(dp1275
g8
g13
sg10
g47
sasg15
(lp1276
sg17
S'Sertoli cell'
p1277
sa(dp1278
g5
(lp1279
(dp1280
g8
g9
sg10
g14
sa(dp1281
g8
g13
sg10
g47
sasg15
(lp1282
(dp1283
g5
(lp1284
(dp1285
g8
g9
sg10
g11
sa(dp1286
g8
g13
sg10
g47
sasg15
(lp1287
sg17
S'Esophageal squamous cell'
p1288
sa(dp1289
g5
(lp1290
(dp1291
g8
g9
sg10
g11
sa(dp1292
g8
g13
sg10
g22
sasg15
(lp1293
sg17
S'Uterine cervix squamous cell'
p1294
sa(dp1295
g5
(lp1296
(dp1297
g8
g9
sg10
g22
sa(dp1298
g8
g13
sg10
g47
sasg15
(lp1299
sg17
S'Oral mucosa squamous cell'
p1300
sa(dp1301
g5
(lp1302
(dp1303
g8
g9
sg10
g14
sa(dp1304
g8
g13
sg10
g22
sasg15
(lp1305
sg17
S'Tonsil squamous cell'
p1306
sa(dp1307
g5
(lp1308
(dp1309
g8
g9
sg10
g14
sa(dp1310
g8
g13
sg10
g22
sasg15
(lp1311
sg17
S'Vagina squamous cell'
p1312
sa(dp1313
g5
(lp1314
(dp1315
g8
g9
sg10
g47
sa(dp1316
g8
g13
sg10
g11
sasg15
(lp1317
sg17
S'Vulva/Anal squamous cell'
p1318
sasg17
S'Squamous cell'
p1319
sasg17
S'Epithelial cell'
p1320
sa(dp1321
g5
(lp1322
(dp1323
g8
g9
sg10
g14
sa(dp1324
g8
g13
sg10
g14
sasg15
(lp1325
(dp1326
g5
(lp1327
(dp1328
g8
g9
sg10
g47
sa(dp1329
g8
g13
sg10
g11
sasg15
(lp1330
(dp1331
g5
(lp1332
(dp1333
g8
g9
sg10
g22
sa(dp1334
g8
g13
sg10
g14
sasg15
(lp1335
sg17
S'Skeletal muscle cell'
p1336
sa(dp1337
g5
(lp1338
(dp1339
g8
g9
sg10
g11
sa(dp1340
g8
g13
sg10
g14
sasg15
(lp1341
sg17
S'Heart muscle cell'
p1342
sasg17
S'Striated muscle cell'
p1343
sa(dp1344
g5
(lp1345
(dp1346
g8
g9
sg10
g14
sa(dp1347
g8
g13
sg10
g11
sasg15
(lp1348
sg17
S'Smooth muscle cell'
p1349
sasg17
S'Muscle cell'
p1350
sasg17
S'Cell type'
p1351
sa(dp1352
g5
(lp1353
(dp1354
g8
g9
sg10
g11
sa(dp1355
g8
g13
sg10
g11
sasg15
(lp1356
(dp1357
g5
(lp1358
(dp1359
g8
g9
sg10
g47
sa(dp1360
g8
g13
sg10
g47
sasg15
(lp1361
(dp1362
g5
(lp1363
(dp1364
g8
g9
sg10
g14
sa(dp1365
g8
g13
sg10
g14
sasg15
(lp1366
sg17
S'Parapharyngeal space'
p1367
sa(dp1368
g5
(lp1369
(dp1370
g8
g9
sg10
g14
sa(dp1371
g8
g13
sg10
g22
sasg15
(lp1372
(dp1373
g5
(lp1374
(dp1375
g8
g9
sg10
g47
sa(dp1376
g8
g13
sg10
g47
sasg15
(lp1377
sg17
S'Scalp'
p1378
sa(dp1379
g5
(lp1380
(dp1381
g8
g9
sg10
g11
sa(dp1382
g8
g13
sg10
g14
sasg15
(lp1383
(dp1384
g5
(lp1385
(dp1386
g8
g9
sg10
g47
sa(dp1387
g8
g13
sg10
g22
sasg15
(lp1388
(dp1389
g5
(lp1390
(dp1391
g8
g9
sg10
g47
sa(dp1392
g8
g13
sg10
g14
sasg15
(lp1393
sg17
S'Middle ear mucosa'
p1394
sasg17
S'Middle ear'
p1395
sa(dp1396
g5
(lp1397
(dp1398
g8
g9
sg10
g14
sa(dp1399
g8
g13
sg10
g14
sasg15
(lp1400
(dp1401
g5
(lp1402
(dp1403
g8
g9
sg10
g47
sa(dp1404
g8
g13
sg10
g11
sasg15
(lp1405
(dp1406
g5
(lp1407
(dp1408
g8
g9
sg10
g14
sa(dp1409
g8
g13
sg10
g47
sasg15
(lp1410
sg17
S'Semicircular canal'
p1411
sa(dp1412
g5
(lp1413
(dp1414
g8
g9
sg10
g14
sa(dp1415
g8
g13
sg10
g47
sasg15
(lp1416
(dp1417
g5
(lp1418
(dp1419
g8
g9
sg10
g14
sa(dp1420
g8
g13
sg10
g47
sasg15
(lp1421
(dp1422
g5
(lp1423
(dp1424
g8
g9
sg10
g14
sa(dp1425
g8
g13
sg10
g11
sasg15
(lp1426
sg17
S'Stria vascularis'
p1427
sasg17
S'Cochlear duct'
p1428
sa(dp1429
g5
(lp1430
(dp1431
g8
g9
sg10
g11
sa(dp1432
g8
g13
sg10
g47
sasg15
(lp1433
sg17
S'Organ of Corti'
p1434
sasg17
S'Cochlea'
p1435
sa(dp1436
g5
(lp1437
(dp1438
g8
g9
sg10
g11
sa(dp1439
g8
g13
sg10
g22
sasg15
(lp1440
sg17
S'Inner ear vestibule'
p1441
sasg17
S'Osseous labyrinth'
p1442
sasg17
S'Inner ear'
p1443
sasg17
S'Ear'
p1444
sa(dp1445
g5
(lp1446
(dp1447
g8
g9
sg10
g11
sa(dp1448
g8
g13
sg10
g47
sasg15
(lp1449
(dp1450
g5
(lp1451
(dp1452
g8
g9
sg10
g22
sa(dp1453
g8
g13
sg10
g11
sasg15
(lp1454
sg17
S'Gingiva'
p1455
sa(dp1456
g5
(lp1457
(dp1458
g8
g9
sg10
g14
sa(dp1459
g8
g13
sg10
g14
sasg15
(lp1460
sg17
S'Mouth floor'
p1461
sa(dp1462
g5
(lp1463
(dp1464
g8
g9
sg10
g22
sa(dp1465
g8
g13
sg10
g47
sasg15
(lp1466
sg17
S'Palate'
p1467
sa(dp1468
g5
(lp1469
(dp1470
g8
g9
sg10
g47
sa(dp1471
g8
g13
sg10
g11
sasg15
(lp1472
sg17
S'Retromolar trigone'
p1473
sa(dp1474
g5
(lp1475
(dp1476
g8
g9
sg10
g14
sa(dp1477
g8
g13
sg10
g47
sasg15
(lp1478
sg17
S'Lip'
p1479
sa(dp1480
g5
(lp1481
(dp1482
g8
g9
sg10
g11
sa(dp1483
g8
g13
sg10
g22
sasg15
(lp1484
(dp1485
g5
(lp1486
(dp1487
g8
g9
sg10
g11
sa(dp1488
g8
g13
sg10
g22
sasg15
(lp1489
sg17
S'Buccal mucosa'
p1490
sa(dp1491
g5
(lp1492
(dp1493
g8
g9
sg10
g11
sa(dp1494
g8
g13
sg10
g22
sasg15
(lp1495
sg17
S'Oral epithelium'
p1496
sasg17
S'Oral mucosa'
p1497
sa(dp1498
g5
(lp1499
(dp1500
g8
g9
sg10
g22
sa(dp1501
g8
g13
sg10
g47
sasg15
(lp1502
(dp1503
g5
(lp1504
(dp1505
g8
g9
sg10
g47
sa(dp1506
g8
g13
sg10
g14
sasg15
(lp1507
sg17
S'Sublingual gland'
p1508
sa(dp1509
g5
(lp1510
(dp1511
g8
g9
sg10
g22
sa(dp1512
g8
g13
sg10
g47
sasg15
(lp1513
sg17
S'Submandibular gland'
p1514
sa(dp1515
g5
(lp1516
(dp1517
g8
g9
sg10
g47
sa(dp1518
g8
g13
sg10
g14
sasg15
(lp1519
sg17
S'Salivary gland epithelium'
p1520
sa(dp1521
g5
(lp1522
(dp1523
g8
g9
sg10
g47
sa(dp1524
g8
g13
sg10
g14
sasg15
(lp1525
sg17
S'Parotid gland'
p1526
sasg17
S'Salivary gland'
p1527
sa(dp1528
g5
(lp1529
(dp1530
g8
g9
sg10
g47
sa(dp1531
g8
g13
sg10
g47
sasg15
(lp1532
(dp1533
g5
(lp1534
(dp1535
g8
g9
sg10
g14
sa(dp1536
g8
g13
sg10
g22
sasg15
(lp1537
sg17
S'Tongue epithelium'
p1538
sa(dp1539
g5
(lp1540
(dp1541
g8
g9
sg10
g11
sa(dp1542
g8
g13
sg10
g14
sasg15
(lp1543
sg17
S'Superior surface of tongue'
p1544
sa(dp1545
g5
(lp1546
(dp1547
g8
g9
sg10
g14
sa(dp1548
g8
g13
sg10
g22
sasg15
(lp1549
sg17
S'Taste bud'
p1550
sasg17
S'Tongue'
p1551
sa(dp1552
g5
(lp1553
(dp1554
g8
g9
sg10
g11
sa(dp1555
g8
g13
sg10
g14
sasg15
(lp1556
sg17
S'Tonsil'
p1557
sa(dp1558
g5
(lp1559
(dp1560
g8
g9
sg10
g22
sa(dp1561
g8
g13
sg10
g11
sasg15
(lp1562
(dp1563
g5
(lp1564
(dp1565
g8
g9
sg10
g14
sa(dp1566
g8
g13
sg10
g11
sasg15
(lp1567
sg17
S'Tooth enamel'
p1568
sa(dp1569
g5
(lp1570
(dp1571
g8
g9
sg10
g14
sa(dp1572
g8
g13
sg10
g22
sasg15
(lp1573
(dp1574
g5
(lp1575
(dp1576
g8
g9
sg10
g47
sa(dp1577
g8
g13
sg10
g47
sasg15
(lp1578
sg17
S'Periodontal ligament'
p1579
sa(dp1580
g5
(lp1581
(dp1582
g8
g9
sg10
g11
sa(dp1583
g8
g13
sg10
g22
sasg15
(lp1584
sg17
S'Dental cementum'
p1585
sasg17
S'Periodontium'
p1586
sa(dp1587
g5
(lp1588
(dp1589
g8
g9
sg10
g22
sa(dp1590
g8
g13
sg10
g47
sasg15
(lp1591
sg17
S'Dental pulp'
p1592
sa(dp1593
g5
(lp1594
(dp1595
g8
g9
sg10
g22
sa(dp1596
g8
g13
sg10
g22
sasg15
(lp1597
sg17
S'Enamel organ'
p1598
sa(dp1599
g5
(lp1600
(dp1601
g8
g9
sg10
g22
sa(dp1602
g8
g13
sg10
g14
sasg15
(lp1603
sg17
S'Molar'
p1604
sasg17
S'Tooth'
p1605
sasg17
S'Mouth'
p1606
sa(dp1607
g5
(lp1608
(dp1609
g8
g9
sg10
g22
sa(dp1610
g8
g13
sg10
g22
sasg15
(lp1611
sg17
S'Face'
p1612
sa(dp1613
g5
(lp1614
(dp1615
g8
g9
sg10
g22
sa(dp1616
g8
g13
sg10
g11
sasg15
(lp1617
sg17
S'Craniopharyngeal duct'
p1618
sa(dp1619
g5
(lp1620
(dp1621
g8
g9
sg10
g14
sa(dp1622
g8
g13
sg10
g14
sasg15
(lp1623
(dp1624
g5
(lp1625
(dp1626
g8
g9
sg10
g11
sa(dp1627
g8
g13
sg10
g47
sasg15
(lp1628
sg17
S'Iris'
p1629
sa(dp1630
g5
(lp1631
(dp1632
g8
g9
sg10
g14
sa(dp1633
g8
g13
sg10
g22
sasg15
(lp1634
sg17
S'Lacrimal gland'
p1635
sa(dp1636
g5
(lp1637
(dp1638
g8
g9
sg10
g14
sa(dp1639
g8
g13
sg10
g14
sasg15
(lp1640
(dp1641
g5
(lp1642
(dp1643
g8
g9
sg10
g47
sa(dp1644
g8
g13
sg10
g11
sasg15
(lp1645
sg17
S'Lens cortex'
p1646
sa(dp1647
g5
(lp1648
(dp1649
g8
g9
sg10
g14
sa(dp1650
g8
g13
sg10
g22
sasg15
(lp1651
sg17
S'Lens epithelium'
p1652
sa(dp1653
g5
(lp1654
(dp1655
g8
g9
sg10
g47
sa(dp1656
g8
g13
sg10
g14
sasg15
(lp1657
sg17
S'Lens fibers'
p1658
sasg17
S'Lens'
p1659
sa(dp1660
g5
(lp1661
(dp1662
g8
g9
sg10
g14
sa(dp1663
g8
g13
sg10
g11
sasg15
(lp1664
(dp1665
g5
(lp1666
(dp1667
g8
g9
sg10
g22
sa(dp1668
g8
g13
sg10
g22
sasg15
(lp1669
sg17
S'Ocular ciliary epithelium'
p1670
sasg17
S'Ocular ciliary body'
p1671
sa(dp1672
g5
(lp1673
(dp1674
g8
g9
sg10
g14
sa(dp1675
g8
g13
sg10
g11
sasg15
(lp1676
(dp1677
g5
(lp1678
(dp1679
g8
g9
sg10
g47
sa(dp1680
g8
g13
sg10
g11
sasg15
(lp1681
sg17
S'Retinal pigment epithelium'
p1682
sa(dp1683
g5
(lp1684
(dp1685
g8
g9
sg10
g11
sa(dp1686
g8
g13
sg10
g14
sasg15
(lp1687
sg17
S'Fovea centralis'
p1688
sa(dp1689
g5
(lp1690
(dp1691
g8
g9
sg10
g22
sa(dp1692
g8
g13
sg10
g47
sasg15
(lp1693
(dp1694
g5
(lp1695
(dp1696
g8
g9
sg10
g22
sa(dp1697
g8
g13
sg10
g47
sasg15
(lp1698
sg17
g287
sa(dp1699
g5
(lp1700
(dp1701
g8
g9
sg10
g11
sa(dp1702
g8
g13
sg10
g11
sasg15
(lp1703
sg17
g305
sasg17
S'Neuroretina'
p1704
sasg17
S'Retina'
p1705
sa(dp1706
g5
(lp1707
(dp1708
g8
g9
sg10
g11
sa(dp1709
g8
g13
sg10
g47
sasg15
(lp1710
sg17
S'Trabecular meshwork'
p1711
sa(dp1712
g5
(lp1713
(dp1714
g8
g9
sg10
g14
sa(dp1715
g8
g13
sg10
g22
sasg15
(lp1716
sg17
S'Choroid'
p1717
sa(dp1718
g5
(lp1719
(dp1720
g8
g9
sg10
g11
sa(dp1721
g8
g13
sg10
g14
sasg15
(lp1722
sg17
S'Uvea'
p1723
sa(dp1724
g5
(lp1725
(dp1726
g8
g9
sg10
g11
sa(dp1727
g8
g13
sg10
g14
sasg15
(lp1728
sg17
S'Conjunctiva'
p1729
sa(dp1730
g5
(lp1731
(dp1732
g8
g9
sg10
g22
sa(dp1733
g8
g13
sg10
g14
sasg15
(lp1734
(dp1735
g5
(lp1736
(dp1737
g8
g9
sg10
g47
sa(dp1738
g8
g13
sg10
g11
sasg15
(lp1739
sg17
S'Corneal endothelium'
p1740
sa(dp1741
g5
(lp1742
(dp1743
g8
g9
sg10
g47
sa(dp1744
g8
g13
sg10
g47
sasg15
(lp1745
sg17
S'Corneal epithelium'
p1746
sa(dp1747
g5
(lp1748
(dp1749
g8
g9
sg10
g22
sa(dp1750
g8
g13
sg10
g47
sasg15
(lp1751
(dp1752
g5
(lp1753
(dp1754
g8
g9
sg10
g22
sa(dp1755
g8
g13
sg10
g47
sasg15
(lp1756
sg17
g442
sasg17
S'Corneal stroma'
p1757
sasg17
S'Cornea'
p1758
sa(dp1759
g5
(lp1760
(dp1761
g8
g9
sg10
g47
sa(dp1762
g8
g13
sg10
g22
sasg15
(lp1763
sg17
S'Extraocular muscle'
p1764
sa(dp1765
g5
(lp1766
(dp1767
g8
g9
sg10
g47
sa(dp1768
g8
g13
sg10
g11
sasg15
(lp1769
sg17
S'Eye vitreous humor'
p1770
sasg17
S'Eye'
p1771
sasg17
S'Head'
p1772
sa(dp1773
g5
(lp1774
(dp1775
g8
g9
sg10
g22
sa(dp1776
g8
g13
sg10
g22
sasg15
(lp1777
sg17
S'Neck'
p1778
sasg17
S'Head and neck'
p1779
sa(dp1780
g5
(lp1781
(dp1782
g8
g9
sg10
g22
sa(dp1783
g8
g13
sg10
g11
sasg15
(lp1784
(dp1785
g5
(lp1786
(dp1787
g8
g9
sg10
g11
sa(dp1788
g8
g13
sg10
g11
sasg15
(lp1789
(dp1790
g5
(lp1791
(dp1792
g8
g9
sg10
g22
sa(dp1793
g8
g13
sg10
g47
sasg15
(lp1794
sg17
S'Elbow'
p1795
sa(dp1796
g5
(lp1797
(dp1798
g8
g9
sg10
g14
sa(dp1799
g8
g13
sg10
g11
sasg15
(lp1800
(dp1801
g5
(lp1802
(dp1803
g8
g9
sg10
g11
sa(dp1804
g8
g13
sg10
g11
sasg15
(lp1805
sg17
S'Deltoid muscle'
p1806
sasg17
S'Shoulder'
p1807
sa(dp1808
g5
(lp1809
(dp1810
g8
g9
sg10
g11
sa(dp1811
g8
g13
sg10
g47
sasg15
(lp1812
(dp1813
g5
(lp1814
(dp1815
g8
g9
sg10
g14
sa(dp1816
g8
g13
sg10
g47
sasg15
(lp1817
sg17
S'Humerus'
p1818
sasg17
S'Arm'
p1819
sa(dp1820
g5
(lp1821
(dp1822
g8
g9
sg10
g11
sa(dp1823
g8
g13
sg10
g11
sasg15
(lp1824
(dp1825
g5
(lp1826
(dp1827
g8
g9
sg10
g22
sa(dp1828
g8
g13
sg10
g47
sasg15
(lp1829
sg17
S'Radius'
p1830
sasg17
S'Forearm'
p1831
sa(dp1832
g5
(lp1833
(dp1834
g8
g9
sg10
g11
sa(dp1835
g8
g13
sg10
g22
sasg15
(lp1836
sg17
S'Axilla'
p1837
sa(dp1838
g5
(lp1839
(dp1840
g8
g9
sg10
g11
sa(dp1841
g8
g13
sg10
g47
sasg15
(lp1842
(dp1843
g5
(lp1844
(dp1845
g8
g9
sg10
g22
sa(dp1846
g8
g13
sg10
g14
sasg15
(lp1847
sg17
S'Metacarpus'
p1848
sasg17
S'Hand'
p1849
sasg17
S'Upper limb'
p1850
sa(dp1851
g5
(lp1852
(dp1853
g8
g9
sg10
g22
sa(dp1854
g8
g13
sg10
g22
sasg15
(lp1855
(dp1856
g5
(lp1857
(dp1858
g8
g9
sg10
g14
sa(dp1859
g8
g13
sg10
g14
sasg15
(lp1860
sg17
S'Ankle'
p1861
sa(dp1862
g5
(lp1863
(dp1864
g8
g9
sg10
g22
sa(dp1865
g8
g13
sg10
g11
sasg15
(lp1866
sg17
S'Knee'
p1867
sa(dp1868
g5
(lp1869
(dp1870
g8
g9
sg10
g47
sa(dp1871
g8
g13
sg10
g11
sasg15
(lp1872
sg17
S'Buttock'
p1873
sa(dp1874
g5
(lp1875
(dp1876
g8
g9
sg10
g47
sa(dp1877
g8
g13
sg10
g22
sasg15
(lp1878
sg17
S'Hip'
p1879
sa(dp1880
g5
(lp1881
(dp1882
g8
g9
sg10
g14
sa(dp1883
g8
g13
sg10
g47
sasg15
(lp1884
(dp1885
g5
(lp1886
(dp1887
g8
g9
sg10
g14
sa(dp1888
g8
g13
sg10
g47
sasg15
(lp1889
sg17
S'Foot sole'
p1890
sa(dp1891
g5
(lp1892
(dp1893
g8
g9
sg10
g11
sa(dp1894
g8
g13
sg10
g11
sasg15
(lp1895
sg17
S'Metatarsus'
p1896
sa(dp1897
g5
(lp1898
(dp1899
g8
g9
sg10
g22
sa(dp1900
g8
g13
sg10
g11
sasg15
(lp1901
sg17
S'Heel bone'
p1902
sasg17
S'Foot'
p1903
sa(dp1904
g5
(lp1905
(dp1906
g8
g9
sg10
g47
sa(dp1907
g8
g13
sg10
g47
sasg15
(lp1908
(dp1909
g5
(lp1910
(dp1911
g8
g9
sg10
g11
sa(dp1912
g8
g13
sg10
g22
sasg15
(lp1913
sg17
S'Thigh epidermis'
p1914
sasg17
S'Thigh'
p1915
sa(dp1916
g5
(lp1917
(dp1918
g8
g9
sg10
g22
sa(dp1919
g8
g13
sg10
g11
sasg15
(lp1920
(dp1921
g5
(lp1922
(dp1923
g8
g9
sg10
g14
sa(dp1924
g8
g13
sg10
g14
sasg15
(lp1925
sg17
S'Fibula'
p1926
sasg17
S'Leg'
p1927
sasg17
S'Lower limb'
p1928
sasg17
S'Limb'
p1929
sa(dp1930
g5
(lp1931
(dp1932
g8
g9
sg10
g22
sa(dp1933
g8
g13
sg10
g22
sasg15
(lp1934
(dp1935
g5
(lp1936
(dp1937
g8
g9
sg10
g22
sa(dp1938
g8
g13
sg10
g22
sasg15
(lp1939
(dp1940
g5
(lp1941
(dp1942
g8
g9
sg10
g47
sa(dp1943
g8
g13
sg10
g14
sasg15
(lp1944
sg17
S'Nipple'
p1945
sa(dp1946
g5
(lp1947
(dp1948
g8
g9
sg10
g47
sa(dp1949
g8
g13
sg10
g11
sasg15
(lp1950
sg17
g388
sa(dp1951
g5
(lp1952
(dp1953
g8
g9
sg10
g11
sa(dp1954
g8
g13
sg10
g47
sasg15
(lp1955
sg17
g418
sa(dp1956
g5
(lp1957
(dp1958
g8
g9
sg10
g47
sa(dp1959
g8
g13
sg10
g14
sasg15
(lp1960
(dp1961
g5
(lp1962
(dp1963
g8
g9
sg10
g22
sa(dp1964
g8
g13
sg10
g11
sasg15
(lp1965
sg17
S'Lactiferous duct'
p1966
sa(dp1967
g5
(lp1968
(dp1969
g8
g9
sg10
g47
sa(dp1970
g8
g13
sg10
g22
sasg15
(lp1971
sg17
S'Lactating mammary gland'
p1972
sa(dp1973
g5
(lp1974
(dp1975
g8
g9
sg10
g22
sa(dp1976
g8
g13
sg10
g22
sasg15
(lp1977
sg17
S'Mammary epithelium'
p1978
sasg17
S'Mammary gland'
p1979
sasg17
S'Breast'
p1980
sa(dp1981
g5
(lp1982
(dp1983
g8
g9
sg10
g14
sa(dp1984
g8
g13
sg10
g22
sasg15
(lp1985
sg17
S'Back'
p1986
sa(dp1987
g5
(lp1988
(dp1989
g8
g9
sg10
g14
sa(dp1990
g8
g13
sg10
g11
sasg15
(lp1991
(dp1992
g5
(lp1993
(dp1994
g8
g9
sg10
g14
sa(dp1995
g8
g13
sg10
g11
sasg15
(lp1996
sg17
S'Hypogastrium'
p1997
sa(dp1998
g5
(lp1999
(dp2000
g8
g9
sg10
g22
sa(dp2001
g8
g13
sg10
g22
sasg15
(lp2002
sg17
S'Acetabulum'
p2003
sa(dp2004
g5
(lp2005
(dp2006
g8
g9
sg10
g22
sa(dp2007
g8
g13
sg10
g22
sasg15
(lp2008
sg17
S'Ilium'
p2009
sa(dp2010
g5
(lp2011
(dp2012
g8
g9
sg10
g22
sa(dp2013
g8
g13
sg10
g47
sasg15
(lp2014
sg17
S'Sacrum'
p2015
sasg17
S'Pelvis'
p2016
sa(dp2017
g5
(lp2018
(dp2019
g8
g9
sg10
g11
sa(dp2020
g8
g13
sg10
g14
sasg15
(lp2021
sg17
S'Flank'
p2022
sa(dp2023
g5
(lp2024
(dp2025
g8
g9
sg10
g14
sa(dp2026
g8
g13
sg10
g11
sasg15
(lp2027
sg17
S'Groin'
p2028
sa(dp2029
g5
(lp2030
(dp2031
g8
g9
sg10
g14
sa(dp2032
g8
g13
sg10
g11
sasg15
(lp2033
sg17
S'Inframammary fold'
p2034
sa(dp2035
g5
(lp2036
(dp2037
g8
g9
sg10
g22
sa(dp2038
g8
g13
sg10
g11
sasg15
(lp2039
(dp2040
g5
(lp2041
(dp2042
g8
g9
sg10
g11
sa(dp2043
g8
g13
sg10
g47
sasg15
(lp2044
sg17
S'Lumbar vertebra'
p2045
sasg17
S'Vertebra'
p2046
sa(dp2047
g5
(lp2048
(dp2049
g8
g9
sg10
g14
sa(dp2050
g8
g13
sg10
g47
sasg15
(lp2051
(dp2052
g5
(lp2053
(dp2054
g8
g9
sg10
g11
sa(dp2055
g8
g13
sg10
g14
sasg15
(lp2056
(dp2057
g5
(lp2058
(dp2059
g8
g9
sg10
g11
sa(dp2060
g8
g13
sg10
g22
sasg15
(lp2061
sg17
S'Visceral adipose tissue of abdominal region'
p2062
sasg17
S'Abdominal adipose tissue'
p2063
sa(dp2064
g5
(lp2065
(dp2066
g8
g9
sg10
g47
sa(dp2067
g8
g13
sg10
g22
sasg15
(lp2068
(dp2069
g5
(lp2070
(dp2071
g8
g9
sg10
g11
sa(dp2072
g8
g13
sg10
g47
sasg15
(lp2073
(dp2074
g5
(lp2075
(dp2076
g8
g9
sg10
g22
sa(dp2077
g8
g13
sg10
g47
sasg15
(lp2078
sg17
S'Greater omentum'
p2079
sasg17
S'Omentum'
p2080
sasg17
S'Peritoneum'
p2081
sa(dp2082
g5
(lp2083
(dp2084
g8
g9
sg10
g11
sa(dp2085
g8
g13
sg10
g47
sasg15
(lp2086
sg17
S'Retroperitoneal space'
p2087
sasg17
S'Abdomen'
p2088
sa(dp2089
g5
(lp2090
(dp2091
g8
g9
sg10
g47
sa(dp2092
g8
g13
sg10
g22
sasg15
(lp2093
(dp2094
g5
(lp2095
(dp2096
g8
g9
sg10
g22
sa(dp2097
g8
g13
sg10
g11
sasg15
(lp2098
sg17
S'Rib'
p2099
sa(dp2100
g5
(lp2101
(dp2102
g8
g9
sg10
g11
sa(dp2103
g8
g13
sg10
g11
sasg15
(lp2104
sg17
S'Mediastinum'
p2105
sa(dp2106
g5
(lp2107
(dp2108
g8
g9
sg10
g47
sa(dp2109
g8
g13
sg10
g47
sasg15
(lp2110
sg17
S'Thoracic muscle'
p2111
sasg17
S'Thorax'
p2112
sasg17
S'Trunk'
p2113
sasg17
S'Body part'
p2114
sa(dp2115
g5
(lp2116
(dp2117
g8
g9
sg10
g47
sa(dp2118
g8
g13
sg10
g11
sasg15
(lp2119
(dp2120
g5
(lp2121
(dp2122
g8
g9
sg10
g22
sa(dp2123
g8
g13
sg10
g11
sasg15
(lp2124
(dp2125
g5
(lp2126
(dp2127
g8
g9
sg10
g47
sa(dp2128
g8
g13
sg10
g11
sasg15
(lp2129
(dp2130
g5
(lp2131
(dp2132
g8
g9
sg10
g22
sa(dp2133
g8
g13
sg10
g14
sasg15
(lp2134
sg17
S'Bile duct'
p2135
sa(dp2136
g5
(lp2137
(dp2138
g8
g9
sg10
g11
sa(dp2139
g8
g13
sg10
g47
sasg15
(lp2140
(dp2141
g5
(lp2142
(dp2143
g8
g9
sg10
g11
sa(dp2144
g8
g13
sg10
g11
sasg15
(lp2145
sg17
S'Gall bladder epithelium'
p2146
sasg17
S'Gall bladder'
p2147
sa(dp2148
g5
(lp2149
(dp2150
g8
g9
sg10
g14
sa(dp2151
g8
g13
sg10
g22
sasg15
(lp2152
(dp2153
g5
(lp2154
(dp2155
g8
g9
sg10
g14
sa(dp2156
g8
g13
sg10
g11
sasg15
(lp2157
sg17
g1003
sa(dp2158
g5
(lp2159
(dp2160
g8
g9
sg10
g22
sa(dp2161
g8
g13
sg10
g14
sasg15
(lp2162
sg17
g1259
sasg17
S'Liver'
p2163
sa(dp2164
g5
(lp2165
(dp2166
g8
g9
sg10
g14
sa(dp2167
g8
g13
sg10
g47
sasg15
(lp2168
sg17
S'Bile'
p2169
sasg17
S'Liver and biliary system'
p2170
sa(dp2171
g5
(lp2172
(dp2173
g8
g9
sg10
g14
sa(dp2174
g8
g13
sg10
g14
sasg15
(lp2175
sg17
S'Pancreatic juice'
p2176
sa(dp2177
g5
(lp2178
(dp2179
g8
g9
sg10
g14
sa(dp2180
g8
g13
sg10
g14
sasg15
(lp2181
sg17
S'Feces'
p2182
sa(dp2183
g5
(lp2184
(dp2185
g8
g9
sg10
g47
sa(dp2186
g8
g13
sg10
g11
sasg15
(lp2187
sg17
S'Ampulla of Vater'
p2188
sa(dp2189
g5
(lp2190
(dp2191
g8
g9
sg10
g47
sa(dp2192
g8
g13
sg10
g47
sasg15
(lp2193
sg17
S'Gingival crevicular fluid'
p2194
sa(dp2195
g5
(lp2196
(dp2197
g8
g9
sg10
g22
sa(dp2198
g8
g13
sg10
g11
sasg15
(lp2199
(dp2200
g5
(lp2201
(dp2202
g8
g9
sg10
g11
sa(dp2203
g8
g13
sg10
g22
sasg15
(lp2204
(dp2205
g5
(lp2206
(dp2207
g8
g9
sg10
g11
sa(dp2208
g8
g13
sg10
g11
sasg15
(lp2209
(dp2210
g5
(lp2211
(dp2212
g8
g9
sg10
g22
sa(dp2213
g8
g13
sg10
g14
sasg15
(lp2214
(dp2215
g5
(lp2216
(dp2217
g8
g9
sg10
g11
sa(dp2218
g8
g13
sg10
g14
sasg15
(lp2219
sg17
S'Duodenal mucosa'
p2220
sasg17
S'Duodenum'
p2221
sa(dp2222
g5
(lp2223
(dp2224
g8
g9
sg10
g14
sa(dp2225
g8
g13
sg10
g11
sasg15
(lp2226
(dp2227
g5
(lp2228
(dp2229
g8
g9
sg10
g47
sa(dp2230
g8
g13
sg10
g11
sasg15
(lp2231
sg17
S'Ileal mucosa'
p2232
sasg17
S'Ileum'
p2233
sa(dp2234
g5
(lp2235
(dp2236
g8
g9
sg10
g22
sa(dp2237
g8
g13
sg10
g22
sasg15
(lp2238
(dp2239
g5
(lp2240
(dp2241
g8
g9
sg10
g22
sa(dp2242
g8
g13
sg10
g11
sasg15
(lp2243
sg17
S'Jejunal smooth muscle'
p2244
sa(dp2245
g5
(lp2246
(dp2247
g8
g9
sg10
g22
sa(dp2248
g8
g13
sg10
g22
sasg15
(lp2249
sg17
S'Jejunal mucosa'
p2250
sasg17
S'Jejunum'
p2251
sa(dp2252
g5
(lp2253
(dp2254
g8
g9
sg10
g22
sa(dp2255
g8
g13
sg10
g47
sasg15
(lp2256
sg17
S'Small intestine mucosa'
p2257
sasg17
S'Small intestine'
p2258
sa(dp2259
g5
(lp2260
(dp2261
g8
g9
sg10
g22
sa(dp2262
g8
g13
sg10
g11
sasg15
(lp2263
(dp2264
g5
(lp2265
(dp2266
g8
g9
sg10
g11
sa(dp2267
g8
g13
sg10
g47
sasg15
(lp2268
(dp2269
g5
(lp2270
(dp2271
g8
g9
sg10
g22
sa(dp2272
g8
g13
sg10
g11
sasg15
(lp2273
sg17
S'Vulva/Anal skin'
p2274
sasg17
S'Anus'
p2275
sa(dp2276
g5
(lp2277
(dp2278
g8
g9
sg10
g14
sa(dp2279
g8
g13
sg10
g47
sasg15
(lp2280
sg17
S'Large intestine mucosa'
p2281
sa(dp2282
g5
(lp2283
(dp2284
g8
g9
sg10
g22
sa(dp2285
g8
g13
sg10
g14
sasg15
(lp2286
sg17
S'Anal canal'
p2287
sa(dp2288
g5
(lp2289
(dp2290
g8
g9
sg10
g47
sa(dp2291
g8
g13
sg10
g22
sasg15
(lp2292
(dp2293
g5
(lp2294
(dp2295
g8
g9
sg10
g14
sa(dp2296
g8
g13
sg10
g22
sasg15
(lp2297
(dp2298
g5
(lp2299
(dp2300
g8
g9
sg10
g47
sa(dp2301
g8
g13
sg10
g47
sasg15
(lp2302
sg17
S'Appendix lymphoid tissue'
p2303
sa(dp2304
g5
(lp2305
(dp2306
g8
g9
sg10
g14
sa(dp2307
g8
g13
sg10
g22
sasg15
(lp2308
sg17
S'Appendix mucosa'
p2309
sasg17
S'Appendix'
p2310
sasg17
S'Cecum'
p2311
sa(dp2312
g5
(lp2313
(dp2314
g8
g9
sg10
g11
sa(dp2315
g8
g13
sg10
g47
sasg15
(lp2316
(dp2317
g5
(lp2318
(dp2319
g8
g9
sg10
g22
sa(dp2320
g8
g13
sg10
g47
sasg15
(lp2321
(dp2322
g5
(lp2323
(dp2324
g8
g9
sg10
g11
sa(dp2325
g8
g13
sg10
g14
sasg15
(lp2326
sg17
g1240
sasg17
S'Colon endothelium'
p2327
sa(dp2328
g5
(lp2329
(dp2330
g8
g9
sg10
g14
sa(dp2331
g8
g13
sg10
g14
sasg15
(lp2332
sg17
S'Colon mucosa'
p2333
sa(dp2334
g5
(lp2335
(dp2336
g8
g9
sg10
g47
sa(dp2337
g8
g13
sg10
g14
sasg15
(lp2338
sg17
S'Colon smooth muscle'
p2339
sa(dp2340
g5
(lp2341
(dp2342
g8
g9
sg10
g47
sa(dp2343
g8
g13
sg10
g47
sasg15
(lp2344
(dp2345
g5
(lp2346
(dp2347
g8
g9
sg10
g14
sa(dp2348
g8
g13
sg10
g11
sasg15
(lp2349
sg17
S'Distal colon mucosa'
p2350
sa(dp2351
g5
(lp2352
(dp2353
g8
g9
sg10
g11
sa(dp2354
g8
g13
sg10
g22
sasg15
(lp2355
sg17
S'Descending colon'
p2356
sa(dp2357
g5
(lp2358
(dp2359
g8
g9
sg10
g14
sa(dp2360
g8
g13
sg10
g47
sasg15
(lp2361
sg17
S'Sigmoid colon'
p2362
sasg17
S'Distal colon'
p2363
sa(dp2364
g5
(lp2365
(dp2366
g8
g9
sg10
g11
sa(dp2367
g8
g13
sg10
g22
sasg15
(lp2368
sg17
S'Transverse colon'
p2369
sa(dp2370
g5
(lp2371
(dp2372
g8
g9
sg10
g14
sa(dp2373
g8
g13
sg10
g22
sasg15
(lp2374
sg17
S'Ascending colon'
p2375
sasg17
S'Colon'
p2376
sa(dp2377
g5
(lp2378
(dp2379
g8
g9
sg10
g14
sa(dp2380
g8
g13
sg10
g22
sasg15
(lp2381
(dp2382
g5
(lp2383
(dp2384
g8
g9
sg10
g11
sa(dp2385
g8
g13
sg10
g47
sasg15
(lp2386
sg17
S'Rectum mucosa'
p2387
sasg17
S'Rectum'
p2388
sa(dp2389
g5
(lp2390
(dp2391
g8
g9
sg10
g22
sa(dp2392
g8
g13
sg10
g11
sasg15
(lp2393
sg17
S'Colorectum'
p2394
sasg17
S'Large intestine'
p2395
sasg17
S'Intestine'
p2396
sa(dp2397
g5
(lp2398
(dp2399
g8
g9
sg10
g47
sa(dp2400
g8
g13
sg10
g14
sasg15
(lp2401
(dp2402
g5
(lp2403
(dp2404
g8
g9
sg10
g47
sa(dp2405
g8
g13
sg10
g14
sasg15
(lp2406
sg17
S'Esophageal epithelium'
p2407
sasg17
S'Esophagus'
p2408
sa(dp2409
g5
(lp2410
(dp2411
g8
g9
sg10
g47
sa(dp2412
g8
g13
sg10
g11
sasg15
(lp2413
(dp2414
g5
(lp2415
(dp2416
g8
g9
sg10
g14
sa(dp2417
g8
g13
sg10
g22
sasg15
(lp2418
sg17
S'Cardia of stomach'
p2419
sa(dp2420
g5
(lp2421
(dp2422
g8
g9
sg10
g14
sa(dp2423
g8
g13
sg10
g14
sasg15
(lp2424
sg17
S'Stomach fundus'
p2425
sa(dp2426
g5
(lp2427
(dp2428
g8
g9
sg10
g14
sa(dp2429
g8
g13
sg10
g47
sasg15
(lp2430
sg17
S'Pylorus'
p2431
sa(dp2432
g5
(lp2433
(dp2434
g8
g9
sg10
g22
sa(dp2435
g8
g13
sg10
g22
sasg15
(lp2436
sg17
S'Stomach mucosa'
p2437
sasg17
S'Stomach'
p2438
sa(dp2439
g5
(lp2440
(dp2441
g8
g9
sg10
g11
sa(dp2442
g8
g13
sg10
g14
sasg15
(lp2443
sg17
g474
sasg17
S'Gastrointestinal tract'
p2444
sa(dp2445
g5
(lp2446
(dp2447
g8
g9
sg10
g22
sa(dp2448
g8
g13
sg10
g22
sasg15
(lp2449
(dp2450
g5
(lp2451
(dp2452
g8
g9
sg10
g22
sa(dp2453
g8
g13
sg10
g22
sasg15
(lp2454
(dp2455
g5
(lp2456
(dp2457
g8
g9
sg10
g47
sa(dp2458
g8
g13
sg10
g14
sasg15
(lp2459
sg17
S'Exocrine pancreas epithelium'
p2460
sasg17
S'Exocrine pancreas'
p2461
sa(dp2462
g5
(lp2463
(dp2464
g8
g9
sg10
g11
sa(dp2465
g8
g13
sg10
g47
sasg15
(lp2466
(dp2467
g5
(lp2468
(dp2469
g8
g9
sg10
g14
sa(dp2470
g8
g13
sg10
g14
sasg15
(lp2471
sg17
S'Pancreatic islet'
p2472
sasg17
S'Endocrine pancreas'
p2473
sasg17
S'Pancreas'
p2474
sasg17
S'Alimentary system'
p2475
sa(dp2476
g5
(lp2477
(dp2478
g8
g9
sg10
g11
sa(dp2479
g8
g13
sg10
g11
sasg15
(lp2480
(dp2481
g5
(lp2482
(dp2483
g8
g9
sg10
g14
sa(dp2484
g8
g13
sg10
g22
sasg15
(lp2485
sg17
S'Blood'
p2486
sa(dp2487
g5
(lp2488
(dp2489
g8
g9
sg10
g22
sa(dp2490
g8
g13
sg10
g47
sasg15
(lp2491
(dp2492
g5
(lp2493
(dp2494
g8
g9
sg10
g22
sa(dp2495
g8
g13
sg10
g14
sasg15
(lp2496
sg17
S'Vascular smooth muscle'
p2497
sa(dp2498
g5
(lp2499
(dp2500
g8
g9
sg10
g47
sa(dp2501
g8
g13
sg10
g22
sasg15
(lp2502
(dp2503
g5
(lp2504
(dp2505
g8
g9
sg10
g47
sa(dp2506
g8
g13
sg10
g22
sasg15
(lp2507
sg17
S'Vena cava'
p2508
sa(dp2509
g5
(lp2510
(dp2511
g8
g9
sg10
g47
sa(dp2512
g8
g13
sg10
g11
sasg15
(lp2513
(dp2514
g5
(lp2515
(dp2516
g8
g9
sg10
g14
sa(dp2517
g8
g13
sg10
g14
sasg15
(lp2518
sg17
S'Jugular vein endothelium'
p2519
sasg17
S'Jugular vein'
p2520
sa(dp2521
g5
(lp2522
(dp2523
g8
g9
sg10
g11
sa(dp2524
g8
g13
sg10
g47
sasg15
(lp2525
sg17
S'Portal vein'
p2526
sa(dp2527
g5
(lp2528
(dp2529
g8
g9
sg10
g11
sa(dp2530
g8
g13
sg10
g47
sasg15
(lp2531
sg17
S'Pulmonary vein'
p2532
sa(dp2533
g5
(lp2534
(dp2535
g8
g9
sg10
g47
sa(dp2536
g8
g13
sg10
g11
sasg15
(lp2537
sg17
S'Saphenous vein'
p2538
sasg17
S'Vein'
p2539
sa(dp2540
g5
(lp2541
(dp2542
g8
g9
sg10
g14
sa(dp2543
g8
g13
sg10
g22
sasg15
(lp2544
(dp2545
g5
(lp2546
(dp2547
g8
g9
sg10
g47
sa(dp2548
g8
g13
sg10
g14
sasg15
(lp2549
(dp2550
g5
(lp2551
(dp2552
g8
g9
sg10
g14
sa(dp2553
g8
g13
sg10
g11
sasg15
(lp2554
(dp2555
g5
(lp2556
(dp2557
g8
g9
sg10
g47
sa(dp2558
g8
g13
sg10
g47
sasg15
(lp2559
sg17
g1234
sasg17
S'Brain endothelium'
p2560
sasg17
S'Brain capillary'
p2561
sa(dp2562
g5
(lp2563
(dp2564
g8
g9
sg10
g14
sa(dp2565
g8
g13
sg10
g11
sasg15
(lp2566
(dp2567
g5
(lp2568
(dp2569
g8
g9
sg10
g22
sa(dp2570
g8
g13
sg10
g11
sasg15
(lp2571
sg17
g2560
sasg17
S'Capillary endothelium'
p2572
sasg17
S'Capillary'
p2573
sa(dp2574
g5
(lp2575
(dp2576
g8
g9
sg10
g14
sa(dp2577
g8
g13
sg10
g11
sasg15
(lp2578
(dp2579
g5
(lp2580
(dp2581
g8
g9
sg10
g22
sa(dp2582
g8
g13
sg10
g47
sasg15
(lp2583
sg17
S'Aortic endothelium'
p2584
sa(dp2585
g5
(lp2586
(dp2587
g8
g9
sg10
g11
sa(dp2588
g8
g13
sg10
g14
sasg15
(lp2589
sg17
g2572
sa(dp2590
g5
(lp2591
(dp2592
g8
g9
sg10
g47
sa(dp2593
g8
g13
sg10
g11
sasg15
(lp2594
sg17
g2327
sa(dp2595
g5
(lp2596
(dp2597
g8
g9
sg10
g22
sa(dp2598
g8
g13
sg10
g47
sasg15
(lp2599
sg17
S'Coronary arterial endothelium'
p2600
sa(dp2601
g5
(lp2602
(dp2603
g8
g9
sg10
g22
sa(dp2604
g8
g13
sg10
g11
sasg15
(lp2605
sg17
g2519
sa(dp2606
g5
(lp2607
(dp2608
g8
g9
sg10
g22
sa(dp2609
g8
g13
sg10
g11
sasg15
(lp2610
sg17
S'Lung endothelium'
p2611
sa(dp2612
g5
(lp2613
(dp2614
g8
g9
sg10
g47
sa(dp2615
g8
g13
sg10
g14
sasg15
(lp2616
sg17
S'Uterine endothelium'
p2617
sasg17
S'Blood vessel vascular endothelium'
p2618
sa(dp2619
g5
(lp2620
(dp2621
g8
g9
sg10
g22
sa(dp2622
g8
g13
sg10
g11
sasg15
(lp2623
(dp2624
g5
(lp2625
(dp2626
g8
g9
sg10
g14
sa(dp2627
g8
g13
sg10
g47
sasg15
(lp2628
sg17
S'Carotid artery'
p2629
sa(dp2630
g5
(lp2631
(dp2632
g8
g9
sg10
g22
sa(dp2633
g8
g13
sg10
g11
sasg15
(lp2634
sg17
S'Cerebral artery'
p2635
sa(dp2636
g5
(lp2637
(dp2638
g8
g9
sg10
g22
sa(dp2639
g8
g13
sg10
g11
sasg15
(lp2640
(dp2641
g5
(lp2642
(dp2643
g8
g9
sg10
g11
sa(dp2644
g8
g13
sg10
g11
sasg15
(lp2645
sg17
g2600
sasg17
S'Coronary artery'
p2646
sa(dp2647
g5
(lp2648
(dp2649
g8
g9
sg10
g47
sa(dp2650
g8
g13
sg10
g22
sasg15
(lp2651
sg17
S'Femoral artery'
p2652
sa(dp2653
g5
(lp2654
(dp2655
g8
g9
sg10
g47
sa(dp2656
g8
g13
sg10
g14
sasg15
(lp2657
sg17
S'Pulmonary artery'
p2658
sa(dp2659
g5
(lp2660
(dp2661
g8
g9
sg10
g14
sa(dp2662
g8
g13
sg10
g22
sasg15
(lp2663
sg17
S'Artery smooth muscle'
p2664
sa(dp2665
g5
(lp2666
(dp2667
g8
g9
sg10
g11
sa(dp2668
g8
g13
sg10
g47
sasg15
(lp2669
(dp2670
g5
(lp2671
(dp2672
g8
g9
sg10
g47
sa(dp2673
g8
g13
sg10
g11
sasg15
(lp2674
sg17
g2584
sa(dp2675
g5
(lp2676
(dp2677
g8
g9
sg10
g22
sa(dp2678
g8
g13
sg10
g47
sasg15
(lp2679
sg17
S'Aortic smooth muscle'
p2680
sasg17
S'Aorta'
p2681
sasg17
S'Artery'
p2682
sasg17
S'Blood vessel'
p2683
sa(dp2684
g5
(lp2685
(dp2686
g8
g9
sg10
g14
sa(dp2687
g8
g13
sg10
g11
sasg15
(lp2688
(dp2689
g5
(lp2690
(dp2691
g8
g9
sg10
g14
sa(dp2692
g8
g13
sg10
g47
sasg15
(lp2693
sg17
S'Pericardium'
p2694
sa(dp2695
g5
(lp2696
(dp2697
g8
g9
sg10
g47
sa(dp2698
g8
g13
sg10
g11
sasg15
(lp2699
sg17
S'Endocardium'
p2700
sa(dp2701
g5
(lp2702
(dp2703
g8
g9
sg10
g22
sa(dp2704
g8
g13
sg10
g14
sasg15
(lp2705
sg17
S'Heart atrium'
p2706
sa(dp2707
g5
(lp2708
(dp2709
g8
g9
sg10
g22
sa(dp2710
g8
g13
sg10
g14
sasg15
(lp2711
sg17
S'Heart muscle'
p2712
sa(dp2713
g5
(lp2714
(dp2715
g8
g9
sg10
g11
sa(dp2716
g8
g13
sg10
g47
sasg15
(lp2717
(dp2718
g5
(lp2719
(dp2720
g8
g9
sg10
g47
sa(dp2721
g8
g13
sg10
g47
sasg15
(lp2722
sg17
S'Heart left ventricle'
p2723
sa(dp2724
g5
(lp2725
(dp2726
g8
g9
sg10
g14
sa(dp2727
g8
g13
sg10
g11
sasg15
(lp2728
sg17
S'Heart right ventricle'
p2729
sasg17
S'Heart ventricle'
p2730
sasg17
S'Heart'
p2731
sasg17
S'Cardiovascular system'
p2732
sa(dp2733
g5
(lp2734
(dp2735
g8
g9
sg10
g14
sa(dp2736
g8
g13
sg10
g47
sasg15
(lp2737
(dp2738
g5
(lp2739
(dp2740
g8
g9
sg10
g22
sa(dp2741
g8
g13
sg10
g47
sasg15
(lp2742
sg17
S'Hypodermis'
p2743
sa(dp2744
g5
(lp2745
(dp2746
g8
g9
sg10
g14
sa(dp2747
g8
g13
sg10
g14
sasg15
(lp2748
(dp2749
g5
(lp2750
(dp2751
g8
g9
sg10
g47
sa(dp2752
g8
g13
sg10
g22
sasg15
(lp2753
sg17
g436
sa(dp2754
g5
(lp2755
(dp2756
g8
g9
sg10
g14
sa(dp2757
g8
g13
sg10
g22
sasg15
(lp2758
sg17
S'Neonatal skin'
p2759
sa(dp2760
g5
(lp2761
(dp2762
g8
g9
sg10
g14
sa(dp2763
g8
g13
sg10
g11
sasg15
(lp2764
(dp2765
g5
(lp2766
(dp2767
g8
g9
sg10
g11
sa(dp2768
g8
g13
sg10
g14
sasg15
(lp2769
sg17
S'Vulva/Anal skin epidermal cell'
p2770
sasg17
g2274
sa(dp2771
g5
(lp2772
(dp2773
g8
g9
sg10
g14
sa(dp2774
g8
g13
sg10
g47
sasg15
(lp2775
(dp2776
g5
(lp2777
(dp2778
g8
g9
sg10
g47
sa(dp2779
g8
g13
sg10
g11
sasg15
(lp2780
sg17
S'Dermal papilla'
p2781
sasg17
S'Dermis'
p2782
sa(dp2783
g5
(lp2784
(dp2785
g8
g9
sg10
g22
sa(dp2786
g8
g13
sg10
g22
sasg15
(lp2787
sg17
g623
sa(dp2788
g5
(lp2789
(dp2790
g8
g9
sg10
g11
sa(dp2791
g8
g13
sg10
g11
sasg15
(lp2792
sg17
g734
sa(dp2793
g5
(lp2794
(dp2795
g8
g9
sg10
g11
sa(dp2796
g8
g13
sg10
g47
sasg15
(lp2797
(dp2798
g5
(lp2799
(dp2800
g8
g9
sg10
g11
sa(dp2801
g8
g13
sg10
g47
sasg15
(lp2802
sg17
S'Hair'
p2803
sa(dp2804
g5
(lp2805
(dp2806
g8
g9
sg10
g22
sa(dp2807
g8
g13
sg10
g22
sasg15
(lp2808
(dp2809
g5
(lp2810
(dp2811
g8
g9
sg10
g22
sa(dp2812
g8
g13
sg10
g22
sasg15
(lp2813
sg17
S'Subungual region'
p2814
sasg17
S'Nail'
p2815
sasg17
S'Skin appendage'
p2816
sa(dp2817
g5
(lp2818
(dp2819
g8
g9
sg10
g11
sa(dp2820
g8
g13
sg10
g11
sasg15
(lp2821
sg17
S'Epidermis'
p2822
sasg17
S'Skin'
p2823
sasg17
S'Dermal system'
p2824
sa(dp2825
g5
(lp2826
(dp2827
g8
g9
sg10
g47
sa(dp2828
g8
g13
sg10
g47
sasg15
(lp2829
(dp2830
g5
(lp2831
(dp2832
g8
g9
sg10
g14
sa(dp2833
g8
g13
sg10
g14
sasg15
(lp2834
(dp2835
g5
(lp2836
(dp2837
g8
g9
sg10
g14
sa(dp2838
g8
g13
sg10
g14
sasg15
(lp2839
sg17
g2473
sa(dp2840
g5
(lp2841
(dp2842
g8
g9
sg10
g11
sa(dp2843
g8
g13
sg10
g14
sasg15
(lp2844
(dp2845
g5
(lp2846
(dp2847
g8
g9
sg10
g14
sa(dp2848
g8
g13
sg10
g22
sasg15
(lp2849
sg17
S'Adrenal medulla'
p2850
sa(dp2851
g5
(lp2852
(dp2853
g8
g9
sg10
g11
sa(dp2854
g8
g13
sg10
g47
sasg15
(lp2855
(dp2856
g5
(lp2857
(dp2858
g8
g9
sg10
g14
sa(dp2859
g8
g13
sg10
g47
sasg15
(lp2860
sg17
S'Adrenal glomerulosa'
p2861
sa(dp2862
g5
(lp2863
(dp2864
g8
g9
sg10
g14
sa(dp2865
g8
g13
sg10
g47
sasg15
(lp2866
sg17
g1072
sasg17
S'Adrenal cortex'
p2867
sasg17
S'Adrenal gland'
p2868
sa(dp2869
g5
(lp2870
(dp2871
g8
g9
sg10
g14
sa(dp2872
g8
g13
sg10
g22
sasg15
(lp2873
(dp2874
g5
(lp2875
(dp2876
g8
g9
sg10
g47
sa(dp2877
g8
g13
sg10
g14
sasg15
(lp2878
sg17
S'Ovarian stroma'
p2879
sa(dp2880
g5
(lp2881
(dp2882
g8
g9
sg10
g11
sa(dp2883
g8
g13
sg10
g14
sasg15
(lp2884
sg17
S'Cumulus oocyte complex'
p2885
sa(dp2886
g5
(lp2887
(dp2888
g8
g9
sg10
g11
sa(dp2889
g8
g13
sg10
g14
sasg15
(lp2890
sg17
S'Corpus luteum'
p2891
sa(dp2892
g5
(lp2893
(dp2894
g8
g9
sg10
g22
sa(dp2895
g8
g13
sg10
g14
sasg15
(lp2896
(dp2897
g5
(lp2898
(dp2899
g8
g9
sg10
g11
sa(dp2900
g8
g13
sg10
g22
sasg15
(lp2901
sg17
S'Ovarian follicular fluid'
p2902
sa(dp2903
g5
(lp2904
(dp2905
g8
g9
sg10
g47
sa(dp2906
g8
g13
sg10
g22
sasg15
(lp2907
sg17
g630
sasg17
S'Ovarian follicle'
p2908
sasg17
S'Ovary'
p2909
sa(dp2910
g5
(lp2911
(dp2912
g8
g9
sg10
g22
sa(dp2913
g8
g13
sg10
g14
sasg15
(lp2914
(dp2915
g5
(lp2916
(dp2917
g8
g9
sg10
g11
sa(dp2918
g8
g13
sg10
g11
sasg15
(lp2919
sg17
S'Parathyroid epithelium'
p2920
sasg17
S'Parathyroid'
p2921
sa(dp2922
g5
(lp2923
(dp2924
g8
g9
sg10
g11
sa(dp2925
g8
g13
sg10
g47
sasg15
(lp2926
sg17
S'Pineal gland'
p2927
sa(dp2928
g5
(lp2929
(dp2930
g8
g9
sg10
g22
sa(dp2931
g8
g13
sg10
g47
sasg15
(lp2932
(dp2933
g5
(lp2934
(dp2935
g8
g9
sg10
g11
sa(dp2936
g8
g13
sg10
g47
sasg15
(lp2937
sg17
S'Posterior pituitary'
p2938
sa(dp2939
g5
(lp2940
(dp2941
g8
g9
sg10
g47
sa(dp2942
g8
g13
sg10
g47
sasg15
(lp2943
sg17
S'Pituitary anterior lobe'
p2944
sa(dp2945
g5
(lp2946
(dp2947
g8
g9
sg10
g22
sa(dp2948
g8
g13
sg10
g22
sasg15
(lp2949
sg17
S'Pituitary neurointermediate lobe'
p2950
sasg17
S'Pituitary gland'
p2951
sa(dp2952
g5
(lp2953
(dp2954
g8
g9
sg10
g14
sa(dp2955
g8
g13
sg10
g47
sasg15
(lp2956
(dp2957
g5
(lp2958
(dp2959
g8
g9
sg10
g11
sa(dp2960
g8
g13
sg10
g11
sasg15
(lp2961
sg17
g636
sa(dp2962
g5
(lp2963
(dp2964
g8
g9
sg10
g11
sa(dp2965
g8
g13
sg10
g22
sasg15
(lp2966
(dp2967
g5
(lp2968
(dp2969
g8
g9
sg10
g22
sa(dp2970
g8
g13
sg10
g22
sasg15
(lp2971
(dp2972
g5
(lp2973
(dp2974
g8
g9
sg10
g11
sa(dp2975
g8
g13
sg10
g11
sasg15
(lp2976
sg17
g574
sa(dp2977
g5
(lp2978
(dp2979
g8
g9
sg10
g11
sa(dp2980
g8
g13
sg10
g47
sasg15
(lp2981
sg17
g598
sasg17
S'Adluminal compartment of the seminiferous tubule'
p2982
sa(dp2983
g5
(lp2984
(dp2985
g8
g9
sg10
g11
sa(dp2986
g8
g13
sg10
g47
sasg15
(lp2987
sg17
S'Seminiferous epithelium'
p2988
sasg17
S'Seminiferous tubule'
p2989
sasg17
S'Testis'
p2990
sa(dp2991
g5
(lp2992
(dp2993
g8
g9
sg10
g11
sa(dp2994
g8
g13
sg10
g47
sasg15
(lp2995
(dp2996
g5
(lp2997
(dp2998
g8
g9
sg10
g11
sa(dp2999
g8
g13
sg10
g22
sasg15
(lp3000
sg17
S'Thyroid epithelium'
p3001
sasg17
S'Thyroid'
p3002
sasg17
S'Endocrine gland'
p3003
sasg17
S'Endocrine system'
p3004
sa(dp3005
g5
(lp3006
(dp3007
g8
g9
sg10
g14
sa(dp3008
g8
g13
sg10
g22
sasg15
(lp3009
(dp3010
g5
(lp3011
(dp3012
g8
g9
sg10
g11
sa(dp3013
g8
g13
sg10
g22
sasg15
(lp3014
(dp3015
g5
(lp3016
(dp3017
g8
g9
sg10
g22
sa(dp3018
g8
g13
sg10
g22
sasg15
(lp3019
(dp3020
g5
(lp3021
(dp3022
g8
g9
sg10
g47
sa(dp3023
g8
g13
sg10
g11
sasg15
(lp3024
sg17
S'Joint synovium'
p3025
sa(dp3026
g5
(lp3027
(dp3028
g8
g9
sg10
g11
sa(dp3029
g8
g13
sg10
g47
sasg15
(lp3030
sg17
S'Articular ligament'
p3031
sa(dp3032
g5
(lp3033
(dp3034
g8
g9
sg10
g47
sa(dp3035
g8
g13
sg10
g11
sasg15
(lp3036
(dp3037
g5
(lp3038
(dp3039
g8
g9
sg10
g14
sa(dp3040
g8
g13
sg10
g14
sasg15
(lp3041
sg17
g400
sasg17
S'Articular cartilage'
p3042
sasg17
S'Joint'
p3043
sa(dp3044
g5
(lp3045
(dp3046
g8
g9
sg10
g14
sa(dp3047
g8
g13
sg10
g11
sasg15
(lp3048
(dp3049
g5
(lp3050
(dp3051
g8
g9
sg10
g11
sa(dp3052
g8
g13
sg10
g11
sasg15
(lp3053
sg17
S'Posterior cranial fossa'
p3054
sa(dp3055
g5
(lp3056
(dp3057
g8
g9
sg10
g11
sa(dp3058
g8
g13
sg10
g22
sasg15
(lp3059
sg17
S'Frontal bone'
p3060
sa(dp3061
g5
(lp3062
(dp3063
g8
g9
sg10
g11
sa(dp3064
g8
g13
sg10
g22
sasg15
(lp3065
sg17
S'Maxilla'
p3066
sa(dp3067
g5
(lp3068
(dp3069
g8
g9
sg10
g14
sa(dp3070
g8
g13
sg10
g14
sasg15
(lp3071
sg17
S'Mandible'
p3072
sa(dp3073
g5
(lp3074
(dp3075
g8
g9
sg10
g11
sa(dp3076
g8
g13
sg10
g11
sasg15
(lp3077
(dp3078
g5
(lp3079
(dp3080
g8
g9
sg10
g11
sa(dp3081
g8
g13
sg10
g14
sasg15
(lp3082
sg17
S'Sella turcica'
p3083
sasg17
S'Sphenoid bone'
p3084
sasg17
S'Skull'
p3085
sa(dp3086
g5
(lp3087
(dp3088
g8
g9
sg10
g14
sa(dp3089
g8
g13
sg10
g22
sasg15
(lp3090
(dp3091
g5
(lp3092
(dp3093
g8
g9
sg10
g22
sa(dp3094
g8
g13
sg10
g14
sasg15
(lp3095
sg17
S'Femur'
p3096
sa(dp3097
g5
(lp3098
(dp3099
g8
g9
sg10
g11
sa(dp3100
g8
g13
sg10
g11
sasg15
(lp3101
sg17
S'Scapula'
p3102
sa(dp3103
g5
(lp3104
(dp3105
g8
g9
sg10
g11
sa(dp3106
g8
g13
sg10
g14
sasg15
(lp3107
sg17
S'Sternum'
p3108
sa(dp3109
g5
(lp3110
(dp3111
g8
g9
sg10
g14
sa(dp3112
g8
g13
sg10
g14
sasg15
(lp3113
sg17
S'Tibia'
p3114
sa(dp3115
g5
(lp3116
(dp3117
g8
g9
sg10
g11
sa(dp3118
g8
g13
sg10
g11
sasg15
(lp3119
sg17
S'Bone tissue'
p3120
sa(dp3121
g5
(lp3122
(dp3123
g8
g9
sg10
g22
sa(dp3124
g8
g13
sg10
g22
sasg15
(lp3125
sg17
g1830
sa(dp3126
g5
(lp3127
(dp3128
g8
g9
sg10
g11
sa(dp3129
g8
g13
sg10
g22
sasg15
(lp3130
sg17
g2009
sa(dp3131
g5
(lp3132
(dp3133
g8
g9
sg10
g22
sa(dp3134
g8
g13
sg10
g22
sasg15
(lp3135
sg17
g2015
sa(dp3136
g5
(lp3137
(dp3138
g8
g9
sg10
g14
sa(dp3139
g8
g13
sg10
g11
sasg15
(lp3140
sg17
g1818
sa(dp3141
g5
(lp3142
(dp3143
g8
g9
sg10
g11
sa(dp3144
g8
g13
sg10
g14
sasg15
(lp3145
sg17
g1926
sa(dp3146
g5
(lp3147
(dp3148
g8
g9
sg10
g22
sa(dp3149
g8
g13
sg10
g11
sasg15
(lp3150
sg17
g2099
sa(dp3151
g5
(lp3152
(dp3153
g8
g9
sg10
g47
sa(dp3154
g8
g13
sg10
g22
sasg15
(lp3155
sg17
S'Phalanx'
p3156
sa(dp3157
g5
(lp3158
(dp3159
g8
g9
sg10
g47
sa(dp3160
g8
g13
sg10
g47
sasg15
(lp3161
sg17
g3066
sa(dp3162
g5
(lp3163
(dp3164
g8
g9
sg10
g11
sa(dp3165
g8
g13
sg10
g14
sasg15
(lp3166
sg17
g3072
sa(dp3167
g5
(lp3168
(dp3169
g8
g9
sg10
g47
sa(dp3170
g8
g13
sg10
g14
sasg15
(lp3171
sg17
g2016
sa(dp3172
g5
(lp3173
(dp3174
g8
g9
sg10
g47
sa(dp3175
g8
g13
sg10
g47
sasg15
(lp3176
sg17
g3084
sa(dp3177
g5
(lp3178
(dp3179
g8
g9
sg10
g14
sa(dp3180
g8
g13
sg10
g14
sasg15
(lp3181
sg17
g2046
sa(dp3182
g5
(lp3183
(dp3184
g8
g9
sg10
g22
sa(dp3185
g8
g13
sg10
g22
sasg15
(lp3186
sg17
g3060
sa(dp3187
g5
(lp3188
(dp3189
g8
g9
sg10
g22
sa(dp3190
g8
g13
sg10
g22
sasg15
(lp3191
sg17
S'Patella'
p3192
sa(dp3193
g5
(lp3194
(dp3195
g8
g9
sg10
g47
sa(dp3196
g8
g13
sg10
g14
sasg15
(lp3197
sg17
S'Talus bone'
p3198
sa(dp3199
g5
(lp3200
(dp3201
g8
g9
sg10
g22
sa(dp3202
g8
g13
sg10
g47
sasg15
(lp3203
sg17
g1902
sasg17
S'Bone'
p3204
sa(dp3205
g5
(lp3206
(dp3207
g8
g9
sg10
g14
sa(dp3208
g8
g13
sg10
g11
sasg15
(lp3209
(dp3210
g5
(lp3211
(dp3212
g8
g9
sg10
g14
sa(dp3213
g8
g13
sg10
g22
sasg15
(lp3214
sg17
g401
sa(dp3215
g5
(lp3216
(dp3217
g8
g9
sg10
g47
sa(dp3218
g8
g13
sg10
g47
sasg15
(lp3219
sg17
S'Nasal cartilage'
p3220
sa(dp3221
g5
(lp3222
(dp3223
g8
g9
sg10
g11
sa(dp3224
g8
g13
sg10
g14
sasg15
(lp3225
sg17
g3042
sasg17
S'Cartilage'
p3226
sasg17
S'Skeletal system'
p3227
sa(dp3228
g5
(lp3229
(dp3230
g8
g9
sg10
g11
sa(dp3231
g8
g13
sg10
g22
sasg15
(lp3232
(dp3233
g5
(lp3234
(dp3235
g8
g9
sg10
g22
sa(dp3236
g8
g13
sg10
g14
sasg15
(lp3237
sg17
S'Slow-twitch skeletal muscle'
p3238
sa(dp3239
g5
(lp3240
(dp3241
g8
g9
sg10
g14
sa(dp3242
g8
g13
sg10
g11
sasg15
(lp3243
(dp3244
g5
(lp3245
(dp3246
g8
g9
sg10
g14
sa(dp3247
g8
g13
sg10
g11
sasg15
(lp3248
sg17
S'Pectoralis muscle'
p3249
sasg17
g2111
sa(dp3250
g5
(lp3251
(dp3252
g8
g9
sg10
g47
sa(dp3253
g8
g13
sg10
g14
sasg15
(lp3254
sg17
g1336
sa(dp3255
g5
(lp3256
(dp3257
g8
g9
sg10
g22
sa(dp3258
g8
g13
sg10
g22
sasg15
(lp3259
sg17
g1806
sa(dp3260
g5
(lp3261
(dp3262
g8
g9
sg10
g22
sa(dp3263
g8
g13
sg10
g11
sasg15
(lp3264
sg17
S'Diaphragm'
p3265
sa(dp3266
g5
(lp3267
(dp3268
g8
g9
sg10
g11
sa(dp3269
g8
g13
sg10
g11
sasg15
(lp3270
sg17
g1764
sasg17
S'Skeletal muscle'
p3271
sa(dp3272
g5
(lp3273
(dp3274
g8
g9
sg10
g22
sa(dp3275
g8
g13
sg10
g14
sasg15
(lp3276
sg17
S'Synovial fluid'
p3277
sa(dp3278
g5
(lp3279
(dp3280
g8
g9
sg10
g22
sa(dp3281
g8
g13
sg10
g14
sasg15
(lp3282
(dp3283
g5
(lp3284
(dp3285
g8
g9
sg10
g14
sa(dp3286
g8
g13
sg10
g11
sasg15
(lp3287
sg17
g3025
sa(dp3288
g5
(lp3289
(dp3290
g8
g9
sg10
g11
sa(dp3291
g8
g13
sg10
g11
sasg15
(lp3292
sg17
S'Tendon synovium'
p3293
sa(dp3294
g5
(lp3295
(dp3296
g8
g9
sg10
g11
sa(dp3297
g8
g13
sg10
g47
sasg15
(lp3298
sg17
g461
sasg17
S'Synovium'
p3299
sa(dp3300
g5
(lp3301
(dp3302
g8
g9
sg10
g47
sa(dp3303
g8
g13
sg10
g22
sasg15
(lp3304
(dp3305
g5
(lp3306
(dp3307
g8
g9
sg10
g11
sa(dp3308
g8
g13
sg10
g14
sasg15
(lp3309
sg17
g3293
sasg17
S'Tendon'
p3310
sasg17
S'Musculoskeletal system'
p3311
sa(dp3312
g5
(lp3313
(dp3314
g8
g9
sg10
g47
sa(dp3315
g8
g13
sg10
g22
sasg15
(lp3316
(dp3317
g5
(lp3318
(dp3319
g8
g9
sg10
g47
sa(dp3320
g8
g13
sg10
g47
sasg15
(lp3321
sg17
g306
sa(dp3322
g5
(lp3323
(dp3324
g8
g9
sg10
g11
sa(dp3325
g8
g13
sg10
g11
sasg15
(lp3326
sg17
S'Myelin sheath'
p3327
sa(dp3328
g5
(lp3329
(dp3330
g8
g9
sg10
g14
sa(dp3331
g8
g13
sg10
g11
sasg15
(lp3332
(dp3333
g5
(lp3334
(dp3335
g8
g9
sg10
g22
sa(dp3336
g8
g13
sg10
g14
sasg15
(lp3337
(dp3338
g5
(lp3339
(dp3340
g8
g9
sg10
g47
sa(dp3341
g8
g13
sg10
g11
sasg15
(lp3342
sg17
S'Optic disk'
p3343
sasg17
S'Optic nerve'
p3344
sa(dp3345
g5
(lp3346
(dp3347
g8
g9
sg10
g22
sa(dp3348
g8
g13
sg10
g14
sasg15
(lp3349
(dp3350
g5
(lp3351
(dp3352
g8
g9
sg10
g22
sa(dp3353
g8
g13
sg10
g14
sasg15
(lp3354
sg17
S'Spinal cord meninges'
p3355
sa(dp3356
g5
(lp3357
(dp3358
g8
g9
sg10
g47
sa(dp3359
g8
g13
sg10
g22
sasg15
(lp3360
sg17
g219
sa(dp3361
g5
(lp3362
(dp3363
g8
g9
sg10
g14
sa(dp3364
g8
g13
sg10
g14
sasg15
(lp3365
sg17
g985
sasg17
S'Spinal cord'
p3366
sa(dp3367
g5
(lp3368
(dp3369
g8
g9
sg10
g11
sa(dp3370
g8
g13
sg10
g22
sasg15
(lp3371
(dp3372
g5
(lp3373
(dp3374
g8
g9
sg10
g14
sa(dp3375
g8
g13
sg10
g11
sasg15
(lp3376
sg17
S'Dura mater'
p3377
sa(dp3378
g5
(lp3379
(dp3380
g8
g9
sg10
g22
sa(dp3381
g8
g13
sg10
g11
sasg15
(lp3382
sg17
S'Brain meninges'
p3383
sa(dp3384
g5
(lp3385
(dp3386
g8
g9
sg10
g14
sa(dp3387
g8
g13
sg10
g14
sasg15
(lp3388
sg17
g3355
sa(dp3389
g5
(lp3390
(dp3391
g8
g9
sg10
g11
sa(dp3392
g8
g13
sg10
g22
sasg15
(lp3393
(dp3394
g5
(lp3395
(dp3396
g8
g9
sg10
g22
sa(dp3397
g8
g13
sg10
g47
sasg15
(lp3398
sg17
S'Arachnoid membrane'
p3399
sasg17
S'Leptomeninges'
p3400
sasg17
S'Meninges'
p3401
sa(dp3402
g5
(lp3403
(dp3404
g8
g9
sg10
g11
sa(dp3405
g8
g13
sg10
g47
sasg15
(lp3406
(dp3407
g5
(lp3408
(dp3409
g8
g9
sg10
g22
sa(dp3410
g8
g13
sg10
g11
sasg15
(lp3411
sg17
S'Cerebral cortex neuropil'
p3412
sasg17
S'Neuropil'
p3413
sa(dp3414
g5
(lp3415
(dp3416
g8
g9
sg10
g47
sa(dp3417
g8
g13
sg10
g14
sasg15
(lp3418
(dp3419
g5
(lp3420
(dp3421
g8
g9
sg10
g14
sa(dp3422
g8
g13
sg10
g47
sasg15
(lp3423
(dp3424
g5
(lp3425
(dp3426
g8
g9
sg10
g14
sa(dp3427
g8
g13
sg10
g11
sasg15
(lp3428
(dp3429
g5
(lp3430
(dp3431
g8
g9
sg10
g14
sa(dp3432
g8
g13
sg10
g47
sasg15
(lp3433
(dp3434
g5
(lp3435
(dp3436
g8
g9
sg10
g11
sa(dp3437
g8
g13
sg10
g47
sasg15
(lp3438
(dp3439
g5
(lp3440
(dp3441
g8
g9
sg10
g11
sa(dp3442
g8
g13
sg10
g22
sasg15
(lp3443
sg17
S'Lateral globus pallidus'
p3444
sa(dp3445
g5
(lp3446
(dp3447
g8
g9
sg10
g22
sa(dp3448
g8
g13
sg10
g14
sasg15
(lp3449
sg17
S'Medial globus pallidus'
p3450
sasg17
S'Globus pallidus'
p3451
sa(dp3452
g5
(lp3453
(dp3454
g8
g9
sg10
g47
sa(dp3455
g8
g13
sg10
g11
sasg15
(lp3456
sg17
S'Putamen'
p3457
sa(dp3458
g5
(lp3459
(dp3460
g8
g9
sg10
g22
sa(dp3461
g8
g13
sg10
g22
sasg15
(lp3462
sg17
S'Nucleus accumbens'
p3463
sa(dp3464
g5
(lp3465
(dp3466
g8
g9
sg10
g14
sa(dp3467
g8
g13
sg10
g47
sasg15
(lp3468
sg17
S'Caudate nucleus'
p3469
sa(dp3470
g5
(lp3471
(dp3472
g8
g9
sg10
g22
sa(dp3473
g8
g13
sg10
g11
sasg15
(lp3474
sg17
S'Corpus striatum'
p3475
sasg17
S'Basal ganglia'
p3476
sa(dp3477
g5
(lp3478
(dp3479
g8
g9
sg10
g47
sa(dp3480
g8
g13
sg10
g22
sasg15
(lp3481
(dp3482
g5
(lp3483
(dp3484
g8
g9
sg10
g22
sa(dp3485
g8
g13
sg10
g47
sasg15
(lp3486
(dp3487
g5
(lp3488
(dp3489
g8
g9
sg10
g14
sa(dp3490
g8
g13
sg10
g11
sasg15
(lp3491
(dp3492
g5
(lp3493
(dp3494
g8
g9
sg10
g14
sa(dp3495
g8
g13
sg10
g11
sasg15
(lp3496
sg17
g196
sa(dp3497
g5
(lp3498
(dp3499
g8
g9
sg10
g47
sa(dp3500
g8
g13
sg10
g47
sasg15
(lp3501
sg17
g256
sasg17
S'Hippocampus'
p3502
sasg17
S'Limbic lobe'
p3503
sa(dp3504
g5
(lp3505
(dp3506
g8
g9
sg10
g47
sa(dp3507
g8
g13
sg10
g22
sasg15
(lp3508
(dp3509
g5
(lp3510
(dp3511
g8
g9
sg10
g22
sa(dp3512
g8
g13
sg10
g14
sasg15
(lp3513
sg17
S'Prefrontal cortex'
p3514
sasg17
S'Frontal lobe'
p3515
sa(dp3516
g5
(lp3517
(dp3518
g8
g9
sg10
g22
sa(dp3519
g8
g13
sg10
g11
sasg15
(lp3520
(dp3521
g5
(lp3522
(dp3523
g8
g9
sg10
g11
sa(dp3524
g8
g13
sg10
g47
sasg15
(lp3525
sg17
S'Visual cortex'
p3526
sasg17
S'Occipital lobe'
p3527
sa(dp3528
g5
(lp3529
(dp3530
g8
g9
sg10
g22
sa(dp3531
g8
g13
sg10
g22
sasg15
(lp3532
sg17
S'Parietal lobe'
p3533
sa(dp3534
g5
(lp3535
(dp3536
g8
g9
sg10
g14
sa(dp3537
g8
g13
sg10
g11
sasg15
(lp3538
(dp3539
g5
(lp3540
(dp3541
g8
g9
sg10
g11
sa(dp3542
g8
g13
sg10
g47
sasg15
(lp3543
sg17
S'Dentate gyrus'
p3544
sasg17
S'Temporal lobe'
p3545
sasg17
S'Cerebral hemisphere'
p3546
sa(dp3547
g5
(lp3548
(dp3549
g8
g9
sg10
g14
sa(dp3550
g8
g13
sg10
g47
sasg15
(lp3551
sg17
S'Cerebral grey matter'
p3552
sa(dp3553
g5
(lp3554
(dp3555
g8
g9
sg10
g47
sa(dp3556
g8
g13
sg10
g11
sasg15
(lp3557
sg17
S'Cerebral white matter'
p3558
sa(dp3559
g5
(lp3560
(dp3561
g8
g9
sg10
g14
sa(dp3562
g8
g13
sg10
g47
sasg15
(lp3563
(dp3564
g5
(lp3565
(dp3566
g8
g9
sg10
g11
sa(dp3567
g8
g13
sg10
g14
sasg15
(lp3568
sg17
g190
sa(dp3569
g5
(lp3570
(dp3571
g8
g9
sg10
g14
sa(dp3572
g8
g13
sg10
g11
sasg15
(lp3573
sg17
g250
sa(dp3574
g5
(lp3575
(dp3576
g8
g9
sg10
g14
sa(dp3577
g8
g13
sg10
g47
sasg15
(lp3578
sg17
g3412
sasg17
S'Cerebral cortex'
p3579
sa(dp3580
g5
(lp3581
(dp3582
g8
g9
sg10
g14
sa(dp3583
g8
g13
sg10
g14
sasg15
(lp3584
sg17
S'Corpus callosum'
p3585
sasg17
S'Telencephalon'
p3586
sa(dp3587
g5
(lp3588
(dp3589
g8
g9
sg10
g14
sa(dp3590
g8
g13
sg10
g14
sasg15
(lp3591
(dp3592
g5
(lp3593
(dp3594
g8
g9
sg10
g11
sa(dp3595
g8
g13
sg10
g11
sasg15
(lp3596
(dp3597
g5
(lp3598
(dp3599
g8
g9
sg10
g14
sa(dp3600
g8
g13
sg10
g14
sasg15
(lp3601
sg17
S'Lateral thalamic nuclei'
p3602
sasg17
S'Thalamus'
p3603
sa(dp3604
g5
(lp3605
(dp3606
g8
g9
sg10
g14
sa(dp3607
g8
g13
sg10
g14
sasg15
(lp3608
(dp3609
g5
(lp3610
(dp3611
g8
g9
sg10
g11
sa(dp3612
g8
g13
sg10
g22
sasg15
(lp3613
sg17
S'Subthalamic nucleus'
p3614
sasg17
S'Subthalamus'
p3615
sa(dp3616
g5
(lp3617
(dp3618
g8
g9
sg10
g11
sa(dp3619
g8
g13
sg10
g47
sasg15
(lp3620
(dp3621
g5
(lp3622
(dp3623
g8
g9
sg10
g47
sa(dp3624
g8
g13
sg10
g11
sasg15
(lp3625
sg17
g2927
sasg17
S'Epithalamus'
p3626
sasg17
S'Diencephalon'
p3627
sasg17
S'Forebrain'
p3628
sa(dp3629
g5
(lp3630
(dp3631
g8
g9
sg10
g22
sa(dp3632
g8
g13
sg10
g14
sasg15
(lp3633
(dp3634
g5
(lp3635
(dp3636
g8
g9
sg10
g22
sa(dp3637
g8
g13
sg10
g14
sasg15
(lp3638
(dp3639
g5
(lp3640
(dp3641
g8
g9
sg10
g47
sa(dp3642
g8
g13
sg10
g14
sasg15
(lp3643
sg17
S'Dorsal vagal nucleus'
p3644
sa(dp3645
g5
(lp3646
(dp3647
g8
g9
sg10
g22
sa(dp3648
g8
g13
sg10
g22
sasg15
(lp3649
sg17
S'Inferior olivari nucleus'
p3650
sasg17
S'Medulla oblongata'
p3651
sa(dp3652
g5
(lp3653
(dp3654
g8
g9
sg10
g11
sa(dp3655
g8
g13
sg10
g47
sasg15
(lp3656
(dp3657
g5
(lp3658
(dp3659
g8
g9
sg10
g14
sa(dp3660
g8
g13
sg10
g22
sasg15
(lp3661
(dp3662
g5
(lp3663
(dp3664
g8
g9
sg10
g22
sa(dp3665
g8
g13
sg10
g22
sasg15
(lp3666
(dp3667
g5
(lp3668
(dp3669
g8
g9
sg10
g11
sa(dp3670
g8
g13
sg10
g11
sasg15
(lp3671
sg17
g244
sa(dp3672
g5
(lp3673
(dp3674
g8
g9
sg10
g14
sa(dp3675
g8
g13
sg10
g14
sasg15
(lp3676
sg17
S'Cerebellum granular layer'
p3677
sa(dp3678
g5
(lp3679
(dp3680
g8
g9
sg10
g11
sa(dp3681
g8
g13
sg10
g11
sasg15
(lp3682
sg17
S'Cerebellum molecular layer'
p3683
sasg17
S'Cerebellar cortex'
p3684
sa(dp3685
g5
(lp3686
(dp3687
g8
g9
sg10
g22
sa(dp3688
g8
g13
sg10
g11
sasg15
(lp3689
sg17
S'Vermis'
p3690
sa(dp3691
g5
(lp3692
(dp3693
g8
g9
sg10
g14
sa(dp3694
g8
g13
sg10
g11
sasg15
(lp3695
sg17
g268
sasg17
S'Cerebellum'
p3696
sa(dp3697
g5
(lp3698
(dp3699
g8
g9
sg10
g14
sa(dp3700
g8
g13
sg10
g22
sasg15
(lp3701
(dp3702
g5
(lp3703
(dp3704
g8
g9
sg10
g22
sa(dp3705
g8
g13
sg10
g14
sasg15
(lp3706
(dp3707
g5
(lp3708
(dp3709
g8
g9
sg10
g11
sa(dp3710
g8
g13
sg10
g14
sasg15
(lp3711
sg17
S'Superior vestibular nuclei'
p3712
sasg17
S'Vestibular nuclei'
p3713
sasg17
S'Pons'
p3714
sasg17
S'Metencephalon'
p3715
sasg17
S'Hindbrain'
p3716
sa(dp3717
g5
(lp3718
(dp3719
g8
g9
sg10
g11
sa(dp3720
g8
g13
sg10
g47
sasg15
(lp3721
(dp3722
g5
(lp3723
(dp3724
g8
g9
sg10
g14
sa(dp3725
g8
g13
sg10
g22
sasg15
(lp3726
(dp3727
g5
(lp3728
(dp3729
g8
g9
sg10
g14
sa(dp3730
g8
g13
sg10
g14
sasg15
(lp3731
sg17
S'Substantia nigra pars compacta'
p3732
sa(dp3733
g5
(lp3734
(dp3735
g8
g9
sg10
g11
sa(dp3736
g8
g13
sg10
g22
sasg15
(lp3737
sg17
S'Substantia nigra pars reticulata'
p3738
sasg17
S'Substantia nigra'
p3739
sa(dp3740
g5
(lp3741
(dp3742
g8
g9
sg10
g47
sa(dp3743
g8
g13
sg10
g11
sasg15
(lp3744
sg17
S'Ventral tegmental area'
p3745
sasg17
S'Midbrain'
p3746
sa(dp3747
g5
(lp3748
(dp3749
g8
g9
sg10
g47
sa(dp3750
g8
g13
sg10
g22
sasg15
(lp3751
sg17
S'Subcommissural organ'
p3752
sa(dp3753
g5
(lp3754
(dp3755
g8
g9
sg10
g47
sa(dp3756
g8
g13
sg10
g14
sasg15
(lp3757
(dp3758
g5
(lp3759
(dp3760
g8
g9
sg10
g14
sa(dp3761
g8
g13
sg10
g14
sasg15
(lp3762
sg17
S'Fourth ventricle'
p3763
sa(dp3764
g5
(lp3765
(dp3766
g8
g9
sg10
g22
sa(dp3767
g8
g13
sg10
g22
sasg15
(lp3768
sg17
S'Third ventricle'
p3769
sa(dp3770
g5
(lp3771
(dp3772
g8
g9
sg10
g47
sa(dp3773
g8
g13
sg10
g14
sasg15
(lp3774
sg17
S'Choroid plexus'
p3775
sa(dp3776
g5
(lp3777
(dp3778
g8
g9
sg10
g47
sa(dp3779
g8
g13
sg10
g11
sasg15
(lp3780
(dp3781
g5
(lp3782
(dp3783
g8
g9
sg10
g47
sa(dp3784
g8
g13
sg10
g11
sasg15
(lp3785
sg17
g202
sa(dp3786
g5
(lp3787
(dp3788
g8
g9
sg10
g11
sa(dp3789
g8
g13
sg10
g11
sasg15
(lp3790
sg17
g262
sasg17
S'Lateral ventricle'
p3791
sasg17
S'Ventricular system of brain'
p3792
sa(dp3793
g5
(lp3794
(dp3795
g8
g9
sg10
g11
sa(dp3796
g8
g13
sg10
g47
sasg15
(lp3797
(dp3798
g5
(lp3799
(dp3800
g8
g9
sg10
g47
sa(dp3801
g8
g13
sg10
g22
sasg15
(lp3802
sg17
S'Parahippocampal gyrus'
p3803
sa(dp3804
g5
(lp3805
(dp3806
g8
g9
sg10
g22
sa(dp3807
g8
g13
sg10
g47
sasg15
(lp3808
sg17
S'Amygdala'
p3809
sa(dp3810
g5
(lp3811
(dp3812
g8
g9
sg10
g47
sa(dp3813
g8
g13
sg10
g22
sasg15
(lp3814
(dp3815
g5
(lp3816
(dp3817
g8
g9
sg10
g11
sa(dp3818
g8
g13
sg10
g47
sasg15
(lp3819
sg17
S'Preoptic area of hypothalamus'
p3820
sa(dp3821
g5
(lp3822
(dp3823
g8
g9
sg10
g22
sa(dp3824
g8
g13
sg10
g22
sasg15
(lp3825
sg17
S'Suprachiasmatic nucleus'
p3826
sasg17
S'Hypothalamus'
p3827
sa(dp3828
g5
(lp3829
(dp3830
g8
g9
sg10
g14
sa(dp3831
g8
g13
sg10
g47
sasg15
(lp3832
sg17
S'Olfactory bulb'
p3833
sasg17
S'Limbic system'
p3834
sa(dp3835
g5
(lp3836
(dp3837
g8
g9
sg10
g47
sa(dp3838
g8
g13
sg10
g11
sasg15
(lp3839
sg17
g3383
sa(dp3840
g5
(lp3841
(dp3842
g8
g9
sg10
g11
sa(dp3843
g8
g13
sg10
g14
sasg15
(lp3844
sg17
g213
sa(dp3845
g5
(lp3846
(dp3847
g8
g9
sg10
g47
sa(dp3848
g8
g13
sg10
g22
sasg15
(lp3849
sg17
g979
sa(dp3850
g5
(lp3851
(dp3852
g8
g9
sg10
g14
sa(dp3853
g8
g13
sg10
g14
sasg15
(lp3854
sg17
g2561
sa(dp3855
g5
(lp3856
(dp3857
g8
g9
sg10
g22
sa(dp3858
g8
g13
sg10
g47
sasg15
(lp3859
(dp3860
g5
(lp3861
(dp3862
g8
g9
sg10
g11
sa(dp3863
g8
g13
sg10
g47
sasg15
(lp3864
sg17
S'Trigeminal nucleus'
p3865
sa(dp3866
g5
(lp3867
(dp3868
g8
g9
sg10
g11
sa(dp3869
g8
g13
sg10
g22
sasg15
(lp3870
sg17
S'Middle cerebellar peduncle'
p3871
sasg17
S'Brain stem'
p3872
sasg17
S'Brain'
p3873
sa(dp3874
g5
(lp3875
(dp3876
g8
g9
sg10
g11
sa(dp3877
g8
g13
sg10
g22
sasg15
(lp3878
sg17
S'Cerebrospinal fluid'
p3879
sasg17
S'Central nervous system'
p3880
sa(dp3881
g5
(lp3882
(dp3883
g8
g9
sg10
g47
sa(dp3884
g8
g13
sg10
g47
sasg15
(lp3885
(dp3886
g5
(lp3887
(dp3888
g8
g9
sg10
g47
sa(dp3889
g8
g13
sg10
g22
sasg15
(lp3890
(dp3891
g5
(lp3892
(dp3893
g8
g9
sg10
g14
sa(dp3894
g8
g13
sg10
g47
sasg15
(lp3895
(dp3896
g5
(lp3897
(dp3898
g8
g9
sg10
g14
sa(dp3899
g8
g13
sg10
g11
sasg15
(lp3900
sg17
S'Paraganglia chromaffin'
p3901
sa(dp3902
g5
(lp3903
(dp3904
g8
g9
sg10
g22
sa(dp3905
g8
g13
sg10
g22
sasg15
(lp3906
(dp3907
g5
(lp3908
(dp3909
g8
g9
sg10
g11
sa(dp3910
g8
g13
sg10
g14
sasg15
(lp3911
sg17
S'Sympathetic ganglion'
p3912
sasg17
S'Sympathetic chain'
p3913
sasg17
S'Sympathetic nervous system'
p3914
sa(dp3915
g5
(lp3916
(dp3917
g8
g9
sg10
g11
sa(dp3918
g8
g13
sg10
g14
sasg15
(lp3919
(dp3920
g5
(lp3921
(dp3922
g8
g9
sg10
g11
sa(dp3923
g8
g13
sg10
g22
sasg15
(lp3924
sg17
S'Colon nerve tissue'
p3925
sasg17
S'Enteric nervous system'
p3926
sa(dp3927
g5
(lp3928
(dp3929
g8
g9
sg10
g11
sa(dp3930
g8
g13
sg10
g11
sasg15
(lp3931
sg17
S'Parasympathetic nervous system'
p3932
sa(dp3933
g5
(lp3934
(dp3935
g8
g9
sg10
g11
sa(dp3936
g8
g13
sg10
g22
sasg15
(lp3937
sg17
S'Autonomic ganglion'
p3938
sasg17
S'Autonomic nervous system'
p3939
sa(dp3940
g5
(lp3941
(dp3942
g8
g9
sg10
g22
sa(dp3943
g8
g13
sg10
g14
sasg15
(lp3944
(dp3945
g5
(lp3946
(dp3947
g8
g9
sg10
g14
sa(dp3948
g8
g13
sg10
g11
sasg15
(lp3949
sg17
S'Spinal ganglion'
p3950
sa(dp3951
g5
(lp3952
(dp3953
g8
g9
sg10
g22
sa(dp3954
g8
g13
sg10
g11
sasg15
(lp3955
sg17
g3912
sa(dp3956
g5
(lp3957
(dp3958
g8
g9
sg10
g14
sa(dp3959
g8
g13
sg10
g22
sasg15
(lp3960
sg17
g3938
sa(dp3961
g5
(lp3962
(dp3963
g8
g9
sg10
g22
sa(dp3964
g8
g13
sg10
g11
sasg15
(lp3965
sg17
S'Trigeminal ganglion'
p3966
sasg17
S'Ganglion'
p3967
sa(dp3968
g5
(lp3969
(dp3970
g8
g9
sg10
g22
sa(dp3971
g8
g13
sg10
g47
sasg15
(lp3972
(dp3973
g5
(lp3974
(dp3975
g8
g9
sg10
g47
sa(dp3976
g8
g13
sg10
g22
sasg15
(lp3977
sg17
g184
sa(dp3978
g5
(lp3979
(dp3980
g8
g9
sg10
g14
sa(dp3981
g8
g13
sg10
g22
sasg15
(lp3982
sg17
S'Sciatic nerve'
p3983
sasg17
S'Peripheral nerve'
p3984
sasg17
S'Peripheral nervous system'
p3985
sasg17
S'Nervous system'
p3986
sa(dp3987
g5
(lp3988
(dp3989
g8
g9
sg10
g11
sa(dp3990
g8
g13
sg10
g11
sasg15
(lp3991
(dp3992
g5
(lp3993
(dp3994
g8
g9
sg10
g22
sa(dp3995
g8
g13
sg10
g47
sasg15
(lp3996
(dp3997
g5
(lp3998
(dp3999
g8
g9
sg10
g47
sa(dp4000
g8
g13
sg10
g22
sasg15
(lp4001
sg17
g557
sa(dp4002
g5
(lp4003
(dp4004
g8
g9
sg10
g22
sa(dp4005
g8
g13
sg10
g47
sasg15
(lp4006
sg17
g2909
sa(dp4007
g5
(lp4008
(dp4009
g8
g9
sg10
g47
sa(dp4010
g8
g13
sg10
g22
sasg15
(lp4011
(dp4012
g5
(lp4013
(dp4014
g8
g9
sg10
g47
sa(dp4015
g8
g13
sg10
g22
sasg15
(lp4016
sg17
S'Oviduct epithelium'
p4017
sasg17
S'Oviduct'
p4018
sa(dp4019
g5
(lp4020
(dp4021
g8
g9
sg10
g11
sa(dp4022
g8
g13
sg10
g22
sasg15
(lp4023
(dp4024
g5
(lp4025
(dp4026
g8
g9
sg10
g14
sa(dp4027
g8
g13
sg10
g22
sasg15
(lp4028
(dp4029
g5
(lp4030
(dp4031
g8
g9
sg10
g47
sa(dp4032
g8
g13
sg10
g11
sasg15
(lp4033
sg17
S'Uterine corpus epithelium'
p4034
sasg17
S'Uterine corpus'
p4035
sa(dp4036
g5
(lp4037
(dp4038
g8
g9
sg10
g14
sa(dp4039
g8
g13
sg10
g11
sasg15
(lp4040
(dp4041
g5
(lp4042
(dp4043
g8
g9
sg10
g11
sa(dp4044
g8
g13
sg10
g47
sasg15
(lp4045
sg17
S'Uterine cervix epithelium'
p4046
sa(dp4047
g5
(lp4048
(dp4049
g8
g9
sg10
g47
sa(dp4050
g8
g13
sg10
g14
sasg15
(lp4051
sg17
S'Uterine ectocervix'
p4052
sasg17
S'Uterine cervix'
p4053
sa(dp4054
g5
(lp4055
(dp4056
g8
g9
sg10
g11
sa(dp4057
g8
g13
sg10
g47
sasg15
(lp4058
(dp4059
g5
(lp4060
(dp4061
g8
g9
sg10
g47
sa(dp4062
g8
g13
sg10
g14
sasg15
(lp4063
sg17
S'Endometrium stroma'
p4064
sa(dp4065
g5
(lp4066
(dp4067
g8
g9
sg10
g47
sa(dp4068
g8
g13
sg10
g11
sasg15
(lp4069
sg17
S'Decidua menstrualis'
p4070
sa(dp4071
g5
(lp4072
(dp4073
g8
g9
sg10
g11
sa(dp4074
g8
g13
sg10
g14
sasg15
(lp4075
sg17
g1078
sasg17
S'Endometrium'
p4076
sa(dp4077
g5
(lp4078
(dp4079
g8
g9
sg10
g11
sa(dp4080
g8
g13
sg10
g14
sasg15
(lp4081
sg17
S'Myometrium'
p4082
sa(dp4083
g5
(lp4084
(dp4085
g8
g9
sg10
g14
sa(dp4086
g8
g13
sg10
g47
sasg15
(lp4087
sg17
g2617
sasg17
S'Uterus'
p4088
sa(dp4089
g5
(lp4090
(dp4091
g8
g9
sg10
g47
sa(dp4092
g8
g13
sg10
g14
sasg15
(lp4093
(dp4094
g5
(lp4095
(dp4096
g8
g9
sg10
g47
sa(dp4097
g8
g13
sg10
g22
sasg15
(lp4098
sg17
S'Vaginal epithelium'
p4099
sasg17
S'Vagina'
p4100
sa(dp4101
g5
(lp4102
(dp4103
g8
g9
sg10
g14
sa(dp4104
g8
g13
sg10
g11
sasg15
(lp4105
(dp4106
g5
(lp4107
(dp4108
g8
g9
sg10
g14
sa(dp4109
g8
g13
sg10
g22
sasg15
(lp4110
sg17
S'Labia'
p4111
sasg17
S'Vulva'
p4112
sasg17
S'Female reproductive system'
p4113
sa(dp4114
g5
(lp4115
(dp4116
g8
g9
sg10
g47
sa(dp4117
g8
g13
sg10
g14
sasg15
(lp4118
(dp4119
g5
(lp4120
(dp4121
g8
g9
sg10
g14
sa(dp4122
g8
g13
sg10
g14
sasg15
(lp4123
sg17
S'Scrotum'
p4124
sa(dp4125
g5
(lp4126
(dp4127
g8
g9
sg10
g22
sa(dp4128
g8
g13
sg10
g47
sasg15
(lp4129
sg17
S'Paratesticular tissue'
p4130
sa(dp4131
g5
(lp4132
(dp4133
g8
g9
sg10
g22
sa(dp4134
g8
g13
sg10
g11
sasg15
(lp4135
sg17
g605
sa(dp4136
g5
(lp4137
(dp4138
g8
g9
sg10
g47
sa(dp4139
g8
g13
sg10
g22
sasg15
(lp4140
sg17
S'Bulbourethral gland'
p4141
sa(dp4142
g5
(lp4143
(dp4144
g8
g9
sg10
g47
sa(dp4145
g8
g13
sg10
g11
sasg15
(lp4146
sg17
S'Ductus ejaculatorius'
p4147
sa(dp4148
g5
(lp4149
(dp4150
g8
g9
sg10
g14
sa(dp4151
g8
g13
sg10
g14
sasg15
(lp4152
(dp4153
g5
(lp4154
(dp4155
g8
g9
sg10
g22
sa(dp4156
g8
g13
sg10
g11
sasg15
(lp4157
sg17
S'Epididymal epithelium'
p4158
sasg17
S'Epididymis'
p4159
sa(dp4160
g5
(lp4161
(dp4162
g8
g9
sg10
g22
sa(dp4163
g8
g13
sg10
g47
sasg15
(lp4164
(dp4165
g5
(lp4166
(dp4167
g8
g9
sg10
g11
sa(dp4168
g8
g13
sg10
g14
sasg15
(lp4169
(dp4170
g5
(lp4171
(dp4172
g8
g9
sg10
g47
sa(dp4173
g8
g13
sg10
g47
sasg15
(lp4174
sg17
g435
sa(dp4175
g5
(lp4176
(dp4177
g8
g9
sg10
g11
sa(dp4178
g8
g13
sg10
g14
sasg15
(lp4179
sg17
g1270
sa(dp4180
g5
(lp4181
(dp4182
g8
g9
sg10
g47
sa(dp4183
g8
g13
sg10
g14
sasg15
(lp4184
sg17
S'Preputial gland'
p4185
sasg17
S'Foreskin'
p4186
sasg17
S'Penis'
p4187
sa(dp4188
g5
(lp4189
(dp4190
g8
g9
sg10
g22
sa(dp4191
g8
g13
sg10
g47
sasg15
(lp4192
(dp4193
g5
(lp4194
(dp4195
g8
g9
sg10
g22
sa(dp4196
g8
g13
sg10
g14
sasg15
(lp4197
sg17
S'Prostate epithelium'
p4198
sasg17
S'Prostate'
p4199
sa(dp4200
g5
(lp4201
(dp4202
g8
g9
sg10
g22
sa(dp4203
g8
g13
sg10
g47
sasg15
(lp4204
sg17
S'Semen'
p4205
sa(dp4206
g5
(lp4207
(dp4208
g8
g9
sg10
g47
sa(dp4209
g8
g13
sg10
g47
sasg15
(lp4210
(dp4211
g5
(lp4212
(dp4213
g8
g9
sg10
g22
sa(dp4214
g8
g13
sg10
g47
sasg15
(lp4215
sg17
S'Seminal vesicle epithelium'
p4216
sasg17
S'Seminal vesicle'
p4217
sa(dp4218
g5
(lp4219
(dp4220
g8
g9
sg10
g22
sa(dp4221
g8
g13
sg10
g22
sasg15
(lp4222
sg17
g2990
sa(dp4223
g5
(lp4224
(dp4225
g8
g9
sg10
g22
sa(dp4226
g8
g13
sg10
g11
sasg15
(lp4227
sg17
S'Vas deferens'
p4228
sasg17
S'Male reproductive system'
p4229
sasg17
S'Reproductive system'
p4230
sa(dp4231
g5
(lp4232
(dp4233
g8
g9
sg10
g22
sa(dp4234
g8
g13
sg10
g14
sasg15
(lp4235
(dp4236
g5
(lp4237
(dp4238
g8
g9
sg10
g11
sa(dp4239
g8
g13
sg10
g14
sasg15
(lp4240
(dp4241
g5
(lp4242
(dp4243
g8
g9
sg10
g14
sa(dp4244
g8
g13
sg10
g11
sasg15
(lp4245
(dp4246
g5
(lp4247
(dp4248
g8
g9
sg10
g14
sa(dp4249
g8
g13
sg10
g14
sasg15
(lp4250
sg17
S'Maxillary sinus'
p4251
sasg17
S'Paranasal sinuses'
p4252
sa(dp4253
g5
(lp4254
(dp4255
g8
g9
sg10
g47
sa(dp4256
g8
g13
sg10
g22
sasg15
(lp4257
(dp4258
g5
(lp4259
(dp4260
g8
g9
sg10
g11
sa(dp4261
g8
g13
sg10
g47
sasg15
(lp4262
sg17
S'Olfactory epithelium'
p4263
sasg17
S'Olfactory mucosa'
p4264
sa(dp4265
g5
(lp4266
(dp4267
g8
g9
sg10
g22
sa(dp4268
g8
g13
sg10
g22
sasg15
(lp4269
sg17
g3220
sa(dp4270
g5
(lp4271
(dp4272
g8
g9
sg10
g22
sa(dp4273
g8
g13
sg10
g22
sasg15
(lp4274
(dp4275
g5
(lp4276
(dp4277
g8
g9
sg10
g11
sa(dp4278
g8
g13
sg10
g22
sasg15
(lp4279
sg17
S'Nasal mucus'
p4280
sa(dp4281
g5
(lp4282
(dp4283
g8
g9
sg10
g22
sa(dp4284
g8
g13
sg10
g22
sasg15
(lp4285
sg17
S'Nasal epithelium'
p4286
sasg17
S'Nasal mucosa'
p4287
sa(dp4288
g5
(lp4289
(dp4290
g8
g9
sg10
g11
sa(dp4291
g8
g13
sg10
g47
sasg15
(lp4292
sg17
S'Nasal vestibule'
p4293
sasg17
S'Nose'
p4294
sa(dp4295
g5
(lp4296
(dp4297
g8
g9
sg10
g47
sa(dp4298
g8
g13
sg10
g47
sasg15
(lp4299
sg17
S'Pleura'
p4300
sa(dp4301
g5
(lp4302
(dp4303
g8
g9
sg10
g11
sa(dp4304
g8
g13
sg10
g14
sasg15
(lp4305
(dp4306
g5
(lp4307
(dp4308
g8
g9
sg10
g47
sa(dp4309
g8
g13
sg10
g14
sasg15
(lp4310
sg17
S'Bronchiolar epithelium'
p4311
sa(dp4312
g5
(lp4313
(dp4314
g8
g9
sg10
g14
sa(dp4315
g8
g13
sg10
g47
sasg15
(lp4316
sg17
g4286
sa(dp4317
g5
(lp4318
(dp4319
g8
g9
sg10
g11
sa(dp4320
g8
g13
sg10
g14
sasg15
(lp4321
(dp4322
g5
(lp4323
(dp4324
g8
g9
sg10
g22
sa(dp4325
g8
g13
sg10
g14
sasg15
(lp4326
sg17
g1211
sasg17
S'Nasopharyngeal epithelium'
p4327
sa(dp4328
g5
(lp4329
(dp4330
g8
g9
sg10
g11
sa(dp4331
g8
g13
sg10
g22
sasg15
(lp4332
(dp4333
g5
(lp4334
(dp4335
g8
g9
sg10
g14
sa(dp4336
g8
g13
sg10
g22
sasg15
(lp4337
sg17
S'Tracheal epithelium'
p4338
sasg17
S'Tracheobronchial epithelium'
p4339
sasg17
S'Airway epithelium'
p4340
sa(dp4341
g5
(lp4342
(dp4343
g8
g9
sg10
g14
sa(dp4344
g8
g13
sg10
g47
sasg15
(lp4345
sg17
S'Larynx'
p4346
sa(dp4347
g5
(lp4348
(dp4349
g8
g9
sg10
g11
sa(dp4350
g8
g13
sg10
g11
sasg15
(lp4351
(dp4352
g5
(lp4353
(dp4354
g8
g9
sg10
g47
sa(dp4355
g8
g13
sg10
g11
sasg15
(lp4356
sg17
g2611
sa(dp4357
g5
(lp4358
(dp4359
g8
g9
sg10
g47
sa(dp4360
g8
g13
sg10
g11
sasg15
(lp4361
sg17
g412
sa(dp4362
g5
(lp4363
(dp4364
g8
g9
sg10
g14
sa(dp4365
g8
g13
sg10
g11
sasg15
(lp4366
(dp4367
g5
(lp4368
(dp4369
g8
g9
sg10
g47
sa(dp4370
g8
g13
sg10
g47
sasg15
(lp4371
sg17
S'Alveolar macrophage'
p4372
sasg17
g1010
sa(dp4373
g5
(lp4374
(dp4375
g8
g9
sg10
g14
sa(dp4376
g8
g13
sg10
g11
sasg15
(lp4377
(dp4378
g5
(lp4379
(dp4380
g8
g9
sg10
g14
sa(dp4381
g8
g13
sg10
g14
sasg15
(lp4382
(dp4383
g5
(lp4384
(dp4385
g8
g9
sg10
g47
sa(dp4386
g8
g13
sg10
g14
sasg15
(lp4387
sg17
g4311
sasg17
S'Bronchiole'
p4388
sa(dp4389
g5
(lp4390
(dp4391
g8
g9
sg10
g14
sa(dp4392
g8
g13
sg10
g14
sasg15
(lp4393
(dp4394
g5
(lp4395
(dp4396
g8
g9
sg10
g47
sa(dp4397
g8
g13
sg10
g47
sasg15
(lp4398
sg17
S'Pneumocyte'
p4399
sa(dp4400
g5
(lp4401
(dp4402
g8
g9
sg10
g11
sa(dp4403
g8
g13
sg10
g22
sasg15
(lp4404
sg17
g4372
sasg17
S'Alveolus'
p4405
sa(dp4406
g5
(lp4407
(dp4408
g8
g9
sg10
g47
sa(dp4409
g8
g13
sg10
g47
sasg15
(lp4410
(dp4411
g5
(lp4412
(dp4413
g8
g9
sg10
g22
sa(dp4414
g8
g13
sg10
g47
sasg15
(lp4415
(dp4416
g5
(lp4417
(dp4418
g8
g9
sg10
g14
sa(dp4419
g8
g13
sg10
g47
sasg15
(lp4420
sg17
g1217
sasg17
S'Bronchus epithelium'
p4421
sasg17
S'Bronchus'
p4422
sasg17
S'Bronchoalveolar system'
p4423
sasg17
S'Lung'
p4424
sa(dp4425
g5
(lp4426
(dp4427
g8
g9
sg10
g14
sa(dp4428
g8
g13
sg10
g22
sasg15
(lp4429
(dp4430
g5
(lp4431
(dp4432
g8
g9
sg10
g22
sa(dp4433
g8
g13
sg10
g14
sasg15
(lp4434
sg17
S'Hypopharynx'
p4435
sa(dp4436
g5
(lp4437
(dp4438
g8
g9
sg10
g11
sa(dp4439
g8
g13
sg10
g47
sasg15
(lp4440
sg17
S'Pharyngeal mucosa'
p4441
sa(dp4442
g5
(lp4443
(dp4444
g8
g9
sg10
g22
sa(dp4445
g8
g13
sg10
g14
sasg15
(lp4446
(dp4447
g5
(lp4448
(dp4449
g8
g9
sg10
g14
sa(dp4450
g8
g13
sg10
g47
sasg15
(lp4451
sg17
g4327
sasg17
S'Nasopharynx'
p4452
sa(dp4453
g5
(lp4454
(dp4455
g8
g9
sg10
g14
sa(dp4456
g8
g13
sg10
g11
sasg15
(lp4457
sg17
S'Oropharynx'
p4458
sasg17
S'Pharynx'
p4459
sa(dp4460
g5
(lp4461
(dp4462
g8
g9
sg10
g11
sa(dp4463
g8
g13
sg10
g47
sasg15
(lp4464
sg17
S'Sputum'
p4465
sa(dp4466
g5
(lp4467
(dp4468
g8
g9
sg10
g47
sa(dp4469
g8
g13
sg10
g11
sasg15
(lp4470
sg17
S'Trachea'
p4471
sasg17
S'Respiratory system'
p4472
sa(dp4473
g5
(lp4474
(dp4475
g8
g9
sg10
g11
sa(dp4476
g8
g13
sg10
g11
sasg15
(lp4477
(dp4478
g5
(lp4479
(dp4480
g8
g9
sg10
g22
sa(dp4481
g8
g13
sg10
g11
sasg15
(lp4482
sg17
S'Renal pelvis'
p4483
sa(dp4484
g5
(lp4485
(dp4486
g8
g9
sg10
g22
sa(dp4487
g8
g13
sg10
g11
sasg15
(lp4488
(dp4489
g5
(lp4490
(dp4491
g8
g9
sg10
g11
sa(dp4492
g8
g13
sg10
g47
sasg15
(lp4493
sg17
S'Renal collecting duct'
p4494
sa(dp4495
g5
(lp4496
(dp4497
g8
g9
sg10
g11
sa(dp4498
g8
g13
sg10
g22
sasg15
(lp4499
(dp4500
g5
(lp4501
(dp4502
g8
g9
sg10
g11
sa(dp4503
g8
g13
sg10
g11
sasg15
(lp4504
sg17
S'Kidney inner medulla'
p4505
sa(dp4506
g5
(lp4507
(dp4508
g8
g9
sg10
g14
sa(dp4509
g8
g13
sg10
g14
sasg15
(lp4510
sg17
S'Kidney outer medulla'
p4511
sasg17
S'Kidney medulla'
p4512
sa(dp4513
g5
(lp4514
(dp4515
g8
g9
sg10
g22
sa(dp4516
g8
g13
sg10
g14
sasg15
(lp4517
(dp4518
g5
(lp4519
(dp4520
g8
g9
sg10
g22
sa(dp4521
g8
g13
sg10
g47
sasg15
(lp4522
(dp4523
g5
(lp4524
(dp4525
g8
g9
sg10
g22
sa(dp4526
g8
g13
sg10
g47
sasg15
(lp4527
(dp4528
g5
(lp4529
(dp4530
g8
g9
sg10
g14
sa(dp4531
g8
g13
sg10
g22
sasg15
(lp4532
sg17
g449
sasg17
S'Renal glomerulus'
p4533
sasg17
S'Renal corpuscle'
p4534
sa(dp4535
g5
(lp4536
(dp4537
g8
g9
sg10
g11
sa(dp4538
g8
g13
sg10
g22
sasg15
(lp4539
(dp4540
g5
(lp4541
(dp4542
g8
g9
sg10
g14
sa(dp4543
g8
g13
sg10
g11
sasg15
(lp4544
sg17
S'Renal distal tubule'
p4545
sa(dp4546
g5
(lp4547
(dp4548
g8
g9
sg10
g47
sa(dp4549
g8
g13
sg10
g47
sasg15
(lp4550
(dp4551
g5
(lp4552
(dp4553
g8
g9
sg10
g47
sa(dp4554
g8
g13
sg10
g11
sasg15
(lp4555
sg17
S'Renal proximal convoluted tubule'
p4556
sasg17
S'Renal proximal tubule'
p4557
sasg17
S'Renal tubule'
p4558
sasg17
S'Nephron'
p4559
sa(dp4560
g5
(lp4561
(dp4562
g8
g9
sg10
g22
sa(dp4563
g8
g13
sg10
g47
sasg15
(lp4564
sg17
S'Kidney cortex'
p4565
sa(dp4566
g5
(lp4567
(dp4568
g8
g9
sg10
g11
sa(dp4569
g8
g13
sg10
g14
sasg15
(lp4570
sg17
S'Kidney epithelium'
p4571
sasg17
S'Kidney'
p4572
sa(dp4573
g5
(lp4574
(dp4575
g8
g9
sg10
g11
sa(dp4576
g8
g13
sg10
g47
sasg15
(lp4577
sg17
S'Ureter'
p4578
sa(dp4579
g5
(lp4580
(dp4581
g8
g9
sg10
g47
sa(dp4582
g8
g13
sg10
g47
sasg15
(lp4583
(dp4584
g5
(lp4585
(dp4586
g8
g9
sg10
g14
sa(dp4587
g8
g13
sg10
g14
sasg15
(lp4588
sg17
S'Urinary bladder smooth muscle'
p4589
sa(dp4590
g5
(lp4591
(dp4592
g8
g9
sg10
g14
sa(dp4593
g8
g13
sg10
g47
sasg15
(lp4594
sg17
S'Urinary bladder urothelium'
p4595
sasg17
S'Urinary bladder'
p4596
sa(dp4597
g5
(lp4598
(dp4599
g8
g9
sg10
g22
sa(dp4600
g8
g13
sg10
g11
sasg15
(lp4601
sg17
S'Urine'
p4602
sa(dp4603
g5
(lp4604
(dp4605
g8
g9
sg10
g14
sa(dp4606
g8
g13
sg10
g22
sasg15
(lp4607
sg17
S'Urethra'
p4608
sasg17
S'Urinary system'
p4609
sa(dp4610
g5
(lp4611
(dp4612
g8
g9
sg10
g11
sa(dp4613
g8
g13
sg10
g14
sasg15
(lp4614
(dp4615
g5
(lp4616
(dp4617
g8
g9
sg10
g22
sa(dp4618
g8
g13
sg10
g22
sasg15
(lp4619
(dp4620
g5
(lp4621
(dp4622
g8
g9
sg10
g11
sa(dp4623
g8
g13
sg10
g47
sasg15
(lp4624
(dp4625
g5
(lp4626
(dp4627
g8
g9
sg10
g14
sa(dp4628
g8
g13
sg10
g22
sasg15
(lp4629
sg17
S'Lymphatic vessel vascular endothelium'
p4630
sasg17
S'Lymphatic vessel'
p4631
sa(dp4632
g5
(lp4633
(dp4634
g8
g9
sg10
g14
sa(dp4635
g8
g13
sg10
g47
sasg15
(lp4636
sg17
S'Lymph'
p4637
sasg17
S'Lymphatic system'
p4638
sa(dp4639
g5
(lp4640
(dp4641
g8
g9
sg10
g14
sa(dp4642
g8
g13
sg10
g11
sasg15
(lp4643
(dp4644
g5
(lp4645
(dp4646
g8
g9
sg10
g47
sa(dp4647
g8
g13
sg10
g47
sasg15
(lp4648
sg17
S'Lymphoid tissue'
p4649
sa(dp4650
g5
(lp4651
(dp4652
g8
g9
sg10
g47
sa(dp4653
g8
g13
sg10
g22
sasg15
(lp4654
sg17
g1044
sa(dp4655
g5
(lp4656
(dp4657
g8
g9
sg10
g22
sa(dp4658
g8
g13
sg10
g22
sasg15
(lp4659
(dp4660
g5
(lp4661
(dp4662
g8
g9
sg10
g14
sa(dp4663
g8
g13
sg10
g22
sasg15
(lp4664
sg17
S'Hematopoietic tissue'
p4665
sa(dp4666
g5
(lp4667
(dp4668
g8
g9
sg10
g47
sa(dp4669
g8
g13
sg10
g11
sasg15
(lp4670
sg17
S'Bone marrow stroma'
p4671
sasg17
S'Bone marrow'
p4672
sasg17
S'Hematopoietic and immune systems'
p4673
sasg17
S'Hemolymphoid and immune system'
p4674
sa(dp4675
g5
(lp4676
(dp4677
g8
g9
sg10
g47
sa(dp4678
g8
g13
sg10
g22
sasg15
(lp4679
(dp4680
g5
(lp4681
(dp4682
g8
g9
sg10
g14
sa(dp4683
g8
g13
sg10
g14
sasg15
(lp4684
sg17
g1771
sa(dp4685
g5
(lp4686
(dp4687
g8
g9
sg10
g47
sa(dp4688
g8
g13
sg10
g22
sasg15
(lp4689
sg17
S'Neuroepithelium'
p4690
sa(dp4691
g5
(lp4692
(dp4693
g8
g9
sg10
g47
sa(dp4694
g8
g13
sg10
g11
sasg15
(lp4695
sg17
g1551
sa(dp4696
g5
(lp4697
(dp4698
g8
g9
sg10
g22
sa(dp4699
g8
g13
sg10
g11
sasg15
(lp4700
sg17
g1444
sa(dp4701
g5
(lp4702
(dp4703
g8
g9
sg10
g14
sa(dp4704
g8
g13
sg10
g47
sasg15
(lp4705
sg17
g4294
sasg17
S'Sense organ'
p4706
sa(dp4707
g5
(lp4708
(dp4709
g8
g9
sg10
g11
sa(dp4710
g8
g13
sg10
g22
sasg15
(lp4711
(dp4712
g5
(lp4713
(dp4714
g8
g9
sg10
g11
sa(dp4715
g8
g13
sg10
g14
sasg15
(lp4716
sg17
S'Milk'
p4717
sa(dp4718
g5
(lp4719
(dp4720
g8
g9
sg10
g47
sa(dp4721
g8
g13
sg10
g11
sasg15
(lp4722
sg17
S'Saliva'
p4723
sa(dp4724
g5
(lp4725
(dp4726
g8
g9
sg10
g14
sa(dp4727
g8
g13
sg10
g22
sasg15
(lp4728
sg17
S'Tear'
p4729
sa(dp4730
g5
(lp4731
(dp4732
g8
g9
sg10
g11
sa(dp4733
g8
g13
sg10
g22
sasg15
(lp4734
(dp4735
g5
(lp4736
(dp4737
g8
g9
sg10
g11
sa(dp4738
g8
g13
sg10
g47
sasg15
(lp4739
sg17
S'Sebaceous gland'
p4740
sa(dp4741
g5
(lp4742
(dp4743
g8
g9
sg10
g14
sa(dp4744
g8
g13
sg10
g22
sasg15
(lp4745
sg17
g4141
sa(dp4746
g5
(lp4747
(dp4748
g8
g9
sg10
g22
sa(dp4749
g8
g13
sg10
g22
sasg15
(lp4750
sg17
g1635
sa(dp4751
g5
(lp4752
(dp4753
g8
g9
sg10
g22
sa(dp4754
g8
g13
sg10
g11
sasg15
(lp4755
sg17
g1979
sa(dp4756
g5
(lp4757
(dp4758
g8
g9
sg10
g47
sa(dp4759
g8
g13
sg10
g11
sasg15
(lp4760
sg17
g4185
sa(dp4761
g5
(lp4762
(dp4763
g8
g9
sg10
g14
sa(dp4764
g8
g13
sg10
g47
sasg15
(lp4765
sg17
g4199
sa(dp4766
g5
(lp4767
(dp4768
g8
g9
sg10
g47
sa(dp4769
g8
g13
sg10
g11
sasg15
(lp4770
sg17
g1527
sa(dp4771
g5
(lp4772
(dp4773
g8
g9
sg10
g22
sa(dp4774
g8
g13
sg10
g11
sasg15
(lp4775
sg17
S'Sweat gland'
p4776
sa(dp4777
g5
(lp4778
(dp4779
g8
g9
sg10
g22
sa(dp4780
g8
g13
sg10
g14
sasg15
(lp4781
sg17
g2461
sasg17
S'Exocrine gland'
p4782
sasg17
S'Exocrine system'
p4783
sasg17
S'Anatomical system'
p4784
sa(dp4785
g5
(lp4786
(dp4787
g8
g9
sg10
g14
sa(dp4788
g8
g13
sg10
g47
sasg15
(lp4789
(dp4790
g5
(lp4791
(dp4792
g8
g9
sg10
g14
sa(dp4793
g8
g13
sg10
g14
sasg15
(lp4794
(dp4795
g5
(lp4796
(dp4797
g8
g9
sg10
g47
sa(dp4798
g8
g13
sg10
g14
sasg15
(lp4799
sg17
g707
sasg17
g4665
sa(dp4800
g5
(lp4801
(dp4802
g8
g9
sg10
g47
sa(dp4803
g8
g13
sg10
g47
sasg15
(lp4804
(dp4805
g5
(lp4806
(dp4807
g8
g9
sg10
g11
sa(dp4808
g8
g13
sg10
g47
sasg15
(lp4809
sg17
g4571
sa(dp4810
g5
(lp4811
(dp4812
g8
g9
sg10
g47
sa(dp4813
g8
g13
sg10
g47
sasg15
(lp4814
sg17
g1652
sa(dp4815
g5
(lp4816
(dp4817
g8
g9
sg10
g11
sa(dp4818
g8
g13
sg10
g22
sasg15
(lp4819
(dp4820
g5
(lp4821
(dp4822
g8
g9
sg10
g22
sa(dp4823
g8
g13
sg10
g11
sasg15
(lp4824
sg17
g1102
sa(dp4825
g5
(lp4826
(dp4827
g8
g9
sg10
g22
sa(dp4828
g8
g13
sg10
g22
sasg15
(lp4829
sg17
g1204
sasg17
g1978
sa(dp4830
g5
(lp4831
(dp4832
g8
g9
sg10
g22
sa(dp4833
g8
g13
sg10
g14
sasg15
(lp4834
(dp4835
g5
(lp4836
(dp4837
g8
g9
sg10
g22
sa(dp4838
g8
g13
sg10
g22
sasg15
(lp4839
sg17
g4263
sasg17
g4690
sa(dp4840
g5
(lp4841
(dp4842
g8
g9
sg10
g22
sa(dp4843
g8
g13
sg10
g14
sasg15
(lp4844
sg17
g1670
sa(dp4845
g5
(lp4846
(dp4847
g8
g9
sg10
g47
sa(dp4848
g8
g13
sg10
g47
sasg15
(lp4849
(dp4850
g5
(lp4851
(dp4852
g8
g9
sg10
g11
sa(dp4853
g8
g13
sg10
g11
sasg15
(lp4854
sg17
g1288
sasg17
g2407
sa(dp4855
g5
(lp4856
(dp4857
g8
g9
sg10
g47
sa(dp4858
g8
g13
sg10
g47
sasg15
(lp4859
(dp4860
g5
(lp4861
(dp4862
g8
g9
sg10
g14
sa(dp4863
g8
g13
sg10
g11
sasg15
(lp4864
sg17
g1300
sasg17
g1496
sa(dp4865
g5
(lp4866
(dp4867
g8
g9
sg10
g47
sa(dp4868
g8
g13
sg10
g14
sasg15
(lp4869
sg17
g1682
sa(dp4870
g5
(lp4871
(dp4872
g8
g9
sg10
g47
sa(dp4873
g8
g13
sg10
g14
sasg15
(lp4874
(dp4875
g5
(lp4876
(dp4877
g8
g9
sg10
g47
sa(dp4878
g8
g13
sg10
g14
sasg15
(lp4879
sg17
g1277
sa(dp4880
g5
(lp4881
(dp4882
g8
g9
sg10
g14
sa(dp4883
g8
g13
sg10
g14
sasg15
(lp4884
sg17
g604
sa(dp4885
g5
(lp4886
(dp4887
g8
g9
sg10
g22
sa(dp4888
g8
g13
sg10
g11
sasg15
(lp4889
sg17
g1247
sasg17
g2988
sa(dp4890
g5
(lp4891
(dp4892
g8
g9
sg10
g14
sa(dp4893
g8
g13
sg10
g14
sasg15
(lp4894
sg17
S'Thymic epithelium'
p4895
sa(dp4896
g5
(lp4897
(dp4898
g8
g9
sg10
g11
sa(dp4899
g8
g13
sg10
g47
sasg15
(lp4900
sg17
g1538
sa(dp4901
g5
(lp4902
(dp4903
g8
g9
sg10
g22
sa(dp4904
g8
g13
sg10
g11
sasg15
(lp4905
(dp4906
g5
(lp4907
(dp4908
g8
g9
sg10
g47
sa(dp4909
g8
g13
sg10
g11
sasg15
(lp4910
sg17
g4595
sasg17
S'Urothelium'
p4911
sa(dp4912
g5
(lp4913
(dp4914
g8
g9
sg10
g11
sa(dp4915
g8
g13
sg10
g14
sasg15
(lp4916
sg17
S'Mesothelium'
p4917
sa(dp4918
g5
(lp4919
(dp4920
g8
g9
sg10
g22
sa(dp4921
g8
g13
sg10
g47
sasg15
(lp4922
(dp4923
g5
(lp4924
(dp4925
g8
g9
sg10
g22
sa(dp4926
g8
g13
sg10
g22
sasg15
(lp4927
sg17
g1138
sasg17
g2146
sa(dp4928
g5
(lp4929
(dp4930
g8
g9
sg10
g11
sa(dp4931
g8
g13
sg10
g47
sasg15
(lp4932
(dp4933
g5
(lp4934
(dp4935
g8
g9
sg10
g11
sa(dp4936
g8
g13
sg10
g11
sasg15
(lp4937
sg17
g1132
sasg17
g4017
sa(dp4938
g5
(lp4939
(dp4940
g8
g9
sg10
g22
sa(dp4941
g8
g13
sg10
g22
sasg15
(lp4942
(dp4943
g5
(lp4944
(dp4945
g8
g9
sg10
g47
sa(dp4946
g8
g13
sg10
g11
sasg15
(lp4947
sg17
g1312
sasg17
g4099
sa(dp4948
g5
(lp4949
(dp4950
g8
g9
sg10
g11
sa(dp4951
g8
g13
sg10
g11
sasg15
(lp4952
sg17
g1320
sa(dp4953
g5
(lp4954
(dp4955
g8
g9
sg10
g14
sa(dp4956
g8
g13
sg10
g47
sasg15
(lp4957
(dp4958
g5
(lp4959
(dp4960
g8
g9
sg10
g47
sa(dp4961
g8
g13
sg10
g14
sasg15
(lp4962
sg17
g1126
sasg17
g4158
sa(dp4963
g5
(lp4964
(dp4965
g8
g9
sg10
g47
sa(dp4966
g8
g13
sg10
g14
sasg15
(lp4967
(dp4968
g5
(lp4969
(dp4970
g8
g9
sg10
g47
sa(dp4971
g8
g13
sg10
g14
sasg15
(lp4972
sg17
g1156
sasg17
g4198
sa(dp4973
g5
(lp4974
(dp4975
g8
g9
sg10
g14
sa(dp4976
g8
g13
sg10
g14
sasg15
(lp4977
(dp4978
g5
(lp4979
(dp4980
g8
g9
sg10
g14
sa(dp4981
g8
g13
sg10
g11
sasg15
(lp4982
sg17
g1168
sasg17
g1520
sa(dp4983
g5
(lp4984
(dp4985
g8
g9
sg10
g47
sa(dp4986
g8
g13
sg10
g14
sasg15
(lp4987
(dp4988
g5
(lp4989
(dp4990
g8
g9
sg10
g14
sa(dp4991
g8
g13
sg10
g11
sasg15
(lp4992
sg17
g1180
sasg17
S'Stomach epithelium'
p4993
sa(dp4994
g5
(lp4995
(dp4996
g8
g9
sg10
g22
sa(dp4997
g8
g13
sg10
g47
sasg15
(lp4998
(dp4999
g5
(lp5000
(dp5001
g8
g9
sg10
g14
sa(dp5002
g8
g13
sg10
g47
sasg15
(lp5003
sg17
g1174
sasg17
g4216
sa(dp5004
g5
(lp5005
(dp5006
g8
g9
sg10
g22
sa(dp5007
g8
g13
sg10
g22
sasg15
(lp5008
(dp5009
g5
(lp5010
(dp5011
g8
g9
sg10
g11
sa(dp5012
g8
g13
sg10
g22
sasg15
(lp5013
sg17
g1306
sasg17
S'Tonsil epithelium'
p5014
sa(dp5015
g5
(lp5016
(dp5017
g8
g9
sg10
g47
sa(dp5018
g8
g13
sg10
g14
sasg15
(lp5019
(dp5020
g5
(lp5021
(dp5022
g8
g9
sg10
g47
sa(dp5023
g8
g13
sg10
g14
sasg15
(lp5024
sg17
g1318
sasg17
S'Vulva/Anal epithelium'
p5025
sa(dp5026
g5
(lp5027
(dp5028
g8
g9
sg10
g22
sa(dp5029
g8
g13
sg10
g22
sasg15
(lp5030
(dp5031
g5
(lp5032
(dp5033
g8
g9
sg10
g47
sa(dp5034
g8
g13
sg10
g22
sasg15
(lp5035
sg17
S'Jejunal epithelium'
p5036
sa(dp5037
g5
(lp5038
(dp5039
g8
g9
sg10
g22
sa(dp5040
g8
g13
sg10
g22
sasg15
(lp5041
sg17
g1186
sa(dp5042
g5
(lp5043
(dp5044
g8
g9
sg10
g47
sa(dp5045
g8
g13
sg10
g47
sasg15
(lp5046
(dp5047
g5
(lp5048
(dp5049
g8
g9
sg10
g47
sa(dp5050
g8
g13
sg10
g47
sasg15
(lp5051
sg17
g1120
sasg17
S'Duodenal epithelium'
p5052
sasg17
S'Small intestine epithelium'
p5053
sa(dp5054
g5
(lp5055
(dp5056
g8
g9
sg10
g14
sa(dp5057
g8
g13
sg10
g22
sasg15
(lp5058
(dp5059
g5
(lp5060
(dp5061
g8
g9
sg10
g47
sa(dp5062
g8
g13
sg10
g14
sasg15
(lp5063
(dp5064
g5
(lp5065
(dp5066
g8
g9
sg10
g47
sa(dp5067
g8
g13
sg10
g47
sasg15
(lp5068
sg17
S'Distal colon epithelium'
p5069
sa(dp5070
g5
(lp5071
(dp5072
g8
g9
sg10
g11
sa(dp5073
g8
g13
sg10
g11
sasg15
(lp5074
sg17
g1114
sasg17
S'Colon epithelium'
p5075
sa(dp5076
g5
(lp5077
(dp5078
g8
g9
sg10
g22
sa(dp5079
g8
g13
sg10
g11
sasg15
(lp5080
(dp5081
g5
(lp5082
(dp5083
g8
g9
sg10
g22
sa(dp5084
g8
g13
sg10
g11
sasg15
(lp5085
sg17
g1096
sasg17
S'Appendix epithelium'
p5086
sa(dp5087
g5
(lp5088
(dp5089
g8
g9
sg10
g22
sa(dp5090
g8
g13
sg10
g22
sasg15
(lp5091
(dp5092
g5
(lp5093
(dp5094
g8
g9
sg10
g14
sa(dp5095
g8
g13
sg10
g22
sasg15
(lp5096
sg17
g1162
sasg17
S'Rectal epithelium'
p5097
sasg17
S'Large intestine epithelium'
p5098
sa(dp5099
g5
(lp5100
(dp5101
g8
g9
sg10
g11
sa(dp5102
g8
g13
sg10
g14
sasg15
(lp5103
(dp5104
g5
(lp5105
(dp5106
g8
g9
sg10
g47
sa(dp5107
g8
g13
sg10
g11
sasg15
(lp5108
sg17
g1090
sasg17
g2460
sa(dp5109
g5
(lp5110
(dp5111
g8
g9
sg10
g47
sa(dp5112
g8
g13
sg10
g47
sasg15
(lp5113
(dp5114
g5
(lp5115
(dp5116
g8
g9
sg10
g11
sa(dp5117
g8
g13
sg10
g11
sasg15
(lp5118
sg17
g1150
sasg17
g2920
sa(dp5119
g5
(lp5120
(dp5121
g8
g9
sg10
g11
sa(dp5122
g8
g13
sg10
g11
sasg15
(lp5123
(dp5124
g5
(lp5125
(dp5126
g8
g9
sg10
g11
sa(dp5127
g8
g13
sg10
g11
sasg15
(lp5128
sg17
g1192
sasg17
g4034
sa(dp5129
g5
(lp5130
(dp5131
g8
g9
sg10
g11
sa(dp5132
g8
g13
sg10
g47
sasg15
(lp5133
(dp5134
g5
(lp5135
(dp5136
g8
g9
sg10
g11
sa(dp5137
g8
g13
sg10
g14
sasg15
(lp5138
sg17
g1065
sa(dp5139
g5
(lp5140
(dp5141
g8
g9
sg10
g47
sa(dp5142
g8
g13
sg10
g22
sasg15
(lp5143
sg17
g1066
sasg17
g3001
sa(dp5144
g5
(lp5145
(dp5146
g8
g9
sg10
g11
sa(dp5147
g8
g13
sg10
g22
sasg15
(lp5148
sg17
g4340
sa(dp5149
g5
(lp5150
(dp5151
g8
g9
sg10
g11
sa(dp5152
g8
g13
sg10
g22
sasg15
(lp5153
(dp5154
g5
(lp5155
(dp5156
g8
g9
sg10
g47
sa(dp5157
g8
g13
sg10
g14
sasg15
(lp5158
sg17
g1294
sa(dp5159
g5
(lp5160
(dp5161
g8
g9
sg10
g47
sa(dp5162
g8
g13
sg10
g47
sasg15
(lp5163
sg17
g1108
sasg17
g4046
sa(dp5164
g5
(lp5165
(dp5166
g8
g9
sg10
g14
sa(dp5167
g8
g13
sg10
g14
sasg15
(lp5168
sg17
g1746
sa(dp5169
g5
(lp5170
(dp5171
g8
g9
sg10
g22
sa(dp5172
g8
g13
sg10
g14
sasg15
(lp5173
(dp5174
g5
(lp5175
(dp5176
g8
g9
sg10
g22
sa(dp5177
g8
g13
sg10
g11
sasg15
(lp5178
sg17
g2618
sa(dp5179
g5
(lp5180
(dp5181
g8
g9
sg10
g47
sa(dp5182
g8
g13
sg10
g47
sasg15
(lp5183
sg17
g4630
sa(dp5184
g5
(lp5185
(dp5186
g8
g9
sg10
g47
sa(dp5187
g8
g13
sg10
g11
sasg15
(lp5188
sg17
g1241
sa(dp5189
g5
(lp5190
(dp5191
g8
g9
sg10
g14
sa(dp5192
g8
g13
sg10
g22
sasg15
(lp5193
sg17
g1740
sasg17
S'Endothelium'
p5194
sa(dp5195
g5
(lp5196
(dp5197
g8
g9
sg10
g11
sa(dp5198
g8
g13
sg10
g47
sasg15
(lp5199
(dp5200
g5
(lp5201
(dp5202
g8
g9
sg10
g22
sa(dp5203
g8
g13
sg10
g22
sasg15
(lp5204
(dp5205
g5
(lp5206
(dp5207
g8
g9
sg10
g47
sa(dp5208
g8
g13
sg10
g47
sasg15
(lp5209
sg17
S'Hair root'
p5210
sasg17
S'Hair follicle'
p5211
sa(dp5212
g5
(lp5213
(dp5214
g8
g9
sg10
g47
sa(dp5215
g8
g13
sg10
g22
sasg15
(lp5216
sg17
g1271
sa(dp5217
g5
(lp5218
(dp5219
g8
g9
sg10
g11
sa(dp5220
g8
g13
sg10
g14
sasg15
(lp5221
sg17
S'Stratum corneum'
p5222
sa(dp5223
g5
(lp5224
(dp5225
g8
g9
sg10
g14
sa(dp5226
g8
g13
sg10
g14
sasg15
(lp5227
sg17
g1914
sa(dp5228
g5
(lp5229
(dp5230
g8
g9
sg10
g22
sa(dp5231
g8
g13
sg10
g11
sasg15
(lp5232
sg17
g2770
sasg17
g2822
sasg17
S'Epithelium'
p5233
sa(dp5234
g5
(lp5235
(dp5236
g8
g9
sg10
g11
sa(dp5237
g8
g13
sg10
g47
sasg15
(lp5238
(dp5239
g5
(lp5240
(dp5241
g8
g9
sg10
g47
sa(dp5242
g8
g13
sg10
g14
sasg15
(lp5243
sg17
S'Peyer patch'
p5244
sa(dp5245
g5
(lp5246
(dp5247
g8
g9
sg10
g47
sa(dp5248
g8
g13
sg10
g22
sasg15
(lp5249
(dp5250
g5
(lp5251
(dp5252
g8
g9
sg10
g14
sa(dp5253
g8
g13
sg10
g47
sasg15
(lp5254
sg17
g992
sa(dp5255
g5
(lp5256
(dp5257
g8
g9
sg10
g14
sa(dp5258
g8
g13
sg10
g47
sasg15
(lp5259
sg17
S'Spleen red pulp'
p5260
sa(dp5261
g5
(lp5262
(dp5263
g8
g9
sg10
g14
sa(dp5264
g8
g13
sg10
g47
sasg15
(lp5265
sg17
S'Spleen white pulp'
p5266
sa(dp5267
g5
(lp5268
(dp5269
g8
g9
sg10
g47
sa(dp5270
g8
g13
sg10
g11
sasg15
(lp5271
sg17
S'Marginal zone of spleen'
p5272
sasg17
S'Spleen'
p5273
sa(dp5274
g5
(lp5275
(dp5276
g8
g9
sg10
g14
sa(dp5277
g8
g13
sg10
g47
sasg15
(lp5278
(dp5279
g5
(lp5280
(dp5281
g8
g9
sg10
g47
sa(dp5282
g8
g13
sg10
g11
sasg15
(lp5283
(dp5284
g5
(lp5285
(dp5286
g8
g9
sg10
g11
sa(dp5287
g8
g13
sg10
g14
sasg15
(lp5288
sg17
g1253
sa(dp5289
g5
(lp5290
(dp5291
g8
g9
sg10
g47
sa(dp5292
g8
g13
sg10
g11
sasg15
(lp5293
sg17
g742
sa(dp5294
g5
(lp5295
(dp5296
g8
g9
sg10
g22
sa(dp5297
g8
g13
sg10
g22
sasg15
(lp5298
sg17
g748
sa(dp5299
g5
(lp5300
(dp5301
g8
g9
sg10
g14
sa(dp5302
g8
g13
sg10
g22
sasg15
(lp5303
sg17
g754
sasg17
S'Thymic cortex'
p5304
sa(dp5305
g5
(lp5306
(dp5307
g8
g9
sg10
g22
sa(dp5308
g8
g13
sg10
g14
sasg15
(lp5309
sg17
g4895
sa(dp5310
g5
(lp5311
(dp5312
g8
g9
sg10
g22
sa(dp5313
g8
g13
sg10
g22
sasg15
(lp5314
sg17
g841
sasg17
S'Thymus'
p5315
sa(dp5316
g5
(lp5317
(dp5318
g8
g9
sg10
g22
sa(dp5319
g8
g13
sg10
g11
sasg15
(lp5320
(dp5321
g5
(lp5322
(dp5323
g8
g9
sg10
g11
sa(dp5324
g8
g13
sg10
g22
sasg15
(lp5325
(dp5326
g5
(lp5327
(dp5328
g8
g9
sg10
g11
sa(dp5329
g8
g13
sg10
g47
sasg15
(lp5330
sg17
S'Tonsil germinal center cell'
p5331
sa(dp5332
g5
(lp5333
(dp5334
g8
g9
sg10
g47
sa(dp5335
g8
g13
sg10
g47
sasg15
(lp5336
sg17
S'Tonsil nongerminal center cell'
p5337
sasg17
g807
sa(dp5338
g5
(lp5339
(dp5340
g8
g9
sg10
g11
sa(dp5341
g8
g13
sg10
g47
sasg15
(lp5342
sg17
g5014
sasg17
g1557
sa(dp5343
g5
(lp5344
(dp5345
g8
g9
sg10
g22
sa(dp5346
g8
g13
sg10
g47
sasg15
(lp5347
sg17
g2303
sa(dp5348
g5
(lp5349
(dp5350
g8
g9
sg10
g22
sa(dp5351
g8
g13
sg10
g22
sasg15
(lp5352
(dp5353
g5
(lp5354
(dp5355
g8
g9
sg10
g11
sa(dp5356
g8
g13
sg10
g11
sasg15
(lp5357
sg17
g825
sasg17
S'Lymph node'
p5358
sasg17
g4649
sa(dp5359
g5
(lp5360
(dp5361
g8
g9
sg10
g11
sa(dp5362
g8
g13
sg10
g22
sasg15
(lp5363
sg17
S'Mesenchyme'
p5364
sa(dp5365
g5
(lp5366
(dp5367
g8
g9
sg10
g11
sa(dp5368
g8
g13
sg10
g11
sasg15
(lp5369
(dp5370
g5
(lp5371
(dp5372
g8
g9
sg10
g11
sa(dp5373
g8
g13
sg10
g22
sasg15
(lp5374
(dp5375
g5
(lp5376
(dp5377
g8
g9
sg10
g11
sa(dp5378
g8
g13
sg10
g22
sasg15
(lp5379
sg17
g4589
sa(dp5380
g5
(lp5381
(dp5382
g8
g9
sg10
g22
sa(dp5383
g8
g13
sg10
g22
sasg15
(lp5384
(dp5385
g5
(lp5386
(dp5387
g8
g9
sg10
g11
sa(dp5388
g8
g13
sg10
g22
sasg15
(lp5389
(dp5390
g5
(lp5391
(dp5392
g8
g9
sg10
g14
sa(dp5393
g8
g13
sg10
g14
sasg15
(lp5394
sg17
g2680
sasg17
g2664
sasg17
g2497
sa(dp5395
g5
(lp5396
(dp5397
g8
g9
sg10
g11
sa(dp5398
g8
g13
sg10
g22
sasg15
(lp5399
sg17
g2244
sa(dp5400
g5
(lp5401
(dp5402
g8
g9
sg10
g14
sa(dp5403
g8
g13
sg10
g22
sasg15
(lp5404
sg17
g1349
sa(dp5405
g5
(lp5406
(dp5407
g8
g9
sg10
g14
sa(dp5408
g8
g13
sg10
g22
sasg15
(lp5409
sg17
g2339
sa(dp5410
g5
(lp5411
(dp5412
g8
g9
sg10
g14
sa(dp5413
g8
g13
sg10
g11
sasg15
(lp5414
(dp5415
g5
(lp5416
(dp5417
g8
g9
sg10
g11
sa(dp5418
g8
g13
sg10
g22
sasg15
(lp5419
sg17
S'Term myometrium'
p5420
sasg17
g4082
sasg17
S'Smooth muscle'
p5421
sa(dp5422
g5
(lp5423
(dp5424
g8
g9
sg10
g11
sa(dp5425
g8
g13
sg10
g47
sasg15
(lp5426
sg17
g1350
sa(dp5427
g5
(lp5428
(dp5429
g8
g9
sg10
g47
sa(dp5430
g8
g13
sg10
g22
sasg15
(lp5431
(dp5432
g5
(lp5433
(dp5434
g8
g9
sg10
g22
sa(dp5435
g8
g13
sg10
g14
sasg15
(lp5436
sg17
g1343
sa(dp5437
g5
(lp5438
(dp5439
g8
g9
sg10
g14
sa(dp5440
g8
g13
sg10
g11
sasg15
(lp5441
(dp5442
g5
(lp5443
(dp5444
g8
g9
sg10
g11
sa(dp5445
g8
g13
sg10
g22
sasg15
(lp5446
sg17
g1342
sasg17
g2712
sa(dp5447
g5
(lp5448
(dp5449
g8
g9
sg10
g47
sa(dp5450
g8
g13
sg10
g14
sasg15
(lp5451
sg17
g3271
sasg17
S'Striated muscle'
p5452
sasg17
S'Muscle'
p5453
sa(dp5454
g5
(lp5455
(dp5456
g8
g9
sg10
g11
sa(dp5457
g8
g13
sg10
g47
sasg15
(lp5458
(dp5459
g5
(lp5460
(dp5461
g8
g9
sg10
g11
sa(dp5462
g8
g13
sg10
g11
sasg15
(lp5463
(dp5464
g5
(lp5465
(dp5466
g8
g9
sg10
g47
sa(dp5467
g8
g13
sg10
g47
sasg15
(lp5468
sg17
g371
sa(dp5469
g5
(lp5470
(dp5471
g8
g9
sg10
g47
sa(dp5472
g8
g13
sg10
g11
sasg15
(lp5473
sg17
S'Cancellous bone'
p5474
sasg17
g3120
sa(dp5475
g5
(lp5476
(dp5477
g8
g9
sg10
g11
sa(dp5478
g8
g13
sg10
g11
sasg15
(lp5479
sg17
g468
sa(dp5480
g5
(lp5481
(dp5482
g8
g9
sg10
g22
sa(dp5483
g8
g13
sg10
g22
sasg15
(lp5484
(dp5485
g5
(lp5486
(dp5487
g8
g9
sg10
g22
sa(dp5488
g8
g13
sg10
g14
sasg15
(lp5489
sg17
g3031
sa(dp5490
g5
(lp5491
(dp5492
g8
g9
sg10
g11
sa(dp5493
g8
g13
sg10
g47
sasg15
(lp5494
sg17
g1579
sasg17
S'Ligament'
p5495
sa(dp5496
g5
(lp5497
(dp5498
g8
g9
sg10
g22
sa(dp5499
g8
g13
sg10
g14
sasg15
(lp5500
(dp5501
g5
(lp5502
(dp5503
g8
g9
sg10
g14
sa(dp5504
g8
g13
sg10
g11
sasg15
(lp5505
sg17
g467
sasg17
g1585
sa(dp5506
g5
(lp5507
(dp5508
g8
g9
sg10
g11
sa(dp5509
g8
g13
sg10
g14
sasg15
(lp5510
sg17
g2743
sa(dp5511
g5
(lp5512
(dp5513
g8
g9
sg10
g14
sa(dp5514
g8
g13
sg10
g11
sasg15
(lp5515
(dp5516
g5
(lp5517
(dp5518
g8
g9
sg10
g11
sa(dp5519
g8
g13
sg10
g47
sasg15
(lp5520
sg17
S'Brown adipose tissue'
p5521
sa(dp5522
g5
(lp5523
(dp5524
g8
g9
sg10
g47
sa(dp5525
g8
g13
sg10
g22
sasg15
(lp5526
sg17
S'White adipose tissue'
p5527
sa(dp5528
g5
(lp5529
(dp5530
g8
g9
sg10
g11
sa(dp5531
g8
g13
sg10
g14
sasg15
(lp5532
(dp5533
g5
(lp5534
(dp5535
g8
g9
sg10
g47
sa(dp5536
g8
g13
sg10
g47
sasg15
(lp5537
sg17
S'Subcutaneous abdominal adipose tissue'
p5538
sasg17
S'Subcutaneous adipose tissue'
p5539
sa(dp5540
g5
(lp5541
(dp5542
g8
g9
sg10
g14
sa(dp5543
g8
g13
sg10
g47
sasg15
(lp5544
sg17
g2063
sa(dp5545
g5
(lp5546
(dp5547
g8
g9
sg10
g22
sa(dp5548
g8
g13
sg10
g47
sasg15
(lp5549
sg17
g389
sasg17
S'Adipose tissue'
p5550
sa(dp5551
g5
(lp5552
(dp5553
g8
g9
sg10
g22
sa(dp5554
g8
g13
sg10
g11
sasg15
(lp5555
sg17
g4671
sa(dp5556
g5
(lp5557
(dp5558
g8
g9
sg10
g14
sa(dp5559
g8
g13
sg10
g47
sasg15
(lp5560
sg17
g3226
sa(dp5561
g5
(lp5562
(dp5563
g8
g9
sg10
g47
sa(dp5564
g8
g13
sg10
g22
sasg15
(lp5565
(dp5566
g5
(lp5567
(dp5568
g8
g9
sg10
g22
sa(dp5569
g8
g13
sg10
g22
sasg15
(lp5570
sg17
g455
sasg17
g1592
sa(dp5571
g5
(lp5572
(dp5573
g8
g9
sg10
g22
sa(dp5574
g8
g13
sg10
g11
sasg15
(lp5575
sg17
g3299
sa(dp5576
g5
(lp5577
(dp5578
g8
g9
sg10
g22
sa(dp5579
g8
g13
sg10
g11
sasg15
(lp5580
sg17
g3310
sasg17
S'Connective tissue'
p5581
sa(dp5582
g5
(lp5583
(dp5584
g8
g9
sg10
g11
sa(dp5585
g8
g13
sg10
g47
sasg15
(lp5586
(dp5587
g5
(lp5588
(dp5589
g8
g9
sg10
g22
sa(dp5590
g8
g13
sg10
g22
sasg15
(lp5591
(dp5592
g5
(lp5593
(dp5594
g8
g9
sg10
g47
sa(dp5595
g8
g13
sg10
g47
sasg15
(lp5596
(dp5597
g5
(lp5598
(dp5599
g8
g9
sg10
g11
sa(dp5600
g8
g13
sg10
g11
sasg15
(lp5601
sg17
g5097
sasg17
g2387
sa(dp5602
g5
(lp5603
(dp5604
g8
g9
sg10
g47
sa(dp5605
g8
g13
sg10
g47
sasg15
(lp5606
(dp5607
g5
(lp5608
(dp5609
g8
g9
sg10
g47
sa(dp5610
g8
g13
sg10
g22
sasg15
(lp5611
(dp5612
g5
(lp5613
(dp5614
g8
g9
sg10
g47
sa(dp5615
g8
g13
sg10
g14
sasg15
(lp5616
sg17
g5069
sasg17
g2350
sa(dp5617
g5
(lp5618
(dp5619
g8
g9
sg10
g14
sa(dp5620
g8
g13
sg10
g47
sasg15
(lp5621
sg17
g5075
sasg17
g2333
sa(dp5622
g5
(lp5623
(dp5624
g8
g9
sg10
g11
sa(dp5625
g8
g13
sg10
g22
sasg15
(lp5626
(dp5627
g5
(lp5628
(dp5629
g8
g9
sg10
g47
sa(dp5630
g8
g13
sg10
g14
sasg15
(lp5631
sg17
g5086
sasg17
g2309
sa(dp5632
g5
(lp5633
(dp5634
g8
g9
sg10
g22
sa(dp5635
g8
g13
sg10
g14
sasg15
(lp5636
sg17
g5098
sasg17
g2281
sa(dp5637
g5
(lp5638
(dp5639
g8
g9
sg10
g22
sa(dp5640
g8
g13
sg10
g22
sasg15
(lp5641
sg17
g4264
sa(dp5642
g5
(lp5643
(dp5644
g8
g9
sg10
g14
sa(dp5645
g8
g13
sg10
g14
sasg15
(lp5646
sg17
g4441
sa(dp5647
g5
(lp5648
(dp5649
g8
g9
sg10
g22
sa(dp5650
g8
g13
sg10
g22
sasg15
(lp5651
(dp5652
g5
(lp5653
(dp5654
g8
g9
sg10
g14
sa(dp5655
g8
g13
sg10
g14
sasg15
(lp5656
sg17
g4993
sasg17
g2437
sa(dp5657
g5
(lp5658
(dp5659
g8
g9
sg10
g47
sa(dp5660
g8
g13
sg10
g22
sasg15
(lp5661
sg17
g1394
sa(dp5662
g5
(lp5663
(dp5664
g8
g9
sg10
g47
sa(dp5665
g8
g13
sg10
g22
sasg15
(lp5666
sg17
g4287
sa(dp5667
g5
(lp5668
(dp5669
g8
g9
sg10
g47
sa(dp5670
g8
g13
sg10
g47
sasg15
(lp5671
sg17
g1497
sa(dp5672
g5
(lp5673
(dp5674
g8
g9
sg10
g22
sa(dp5675
g8
g13
sg10
g22
sasg15
(lp5676
(dp5677
g5
(lp5678
(dp5679
g8
g9
sg10
g11
sa(dp5680
g8
g13
sg10
g14
sasg15
(lp5681
sg17
g5053
sa(dp5682
g5
(lp5683
(dp5684
g8
g9
sg10
g47
sa(dp5685
g8
g13
sg10
g47
sasg15
(lp5686
(dp5687
g5
(lp5688
(dp5689
g8
g9
sg10
g22
sa(dp5690
g8
g13
sg10
g22
sasg15
(lp5691
sg17
g5052
sasg17
g2220
sa(dp5692
g5
(lp5693
(dp5694
g8
g9
sg10
g14
sa(dp5695
g8
g13
sg10
g11
sasg15
(lp5696
sg17
g2232
sa(dp5697
g5
(lp5698
(dp5699
g8
g9
sg10
g22
sa(dp5700
g8
g13
sg10
g47
sasg15
(lp5701
(dp5702
g5
(lp5703
(dp5704
g8
g9
sg10
g47
sa(dp5705
g8
g13
sg10
g11
sasg15
(lp5706
sg17
g5036
sasg17
g2250
sasg17
g2257
sasg17
S'Mucosa'
p5707
sasg17
S'Tissue'
p5708
sa(dp5709
g5
(lp5710
(dp5711
g8
g9
sg10
g14
sa(dp5712
g8
g13
sg10
g47
sasg15
(lp5713
(dp5714
g5
(lp5715
(dp5716
g8
g9
sg10
g11
sa(dp5717
g8
g13
sg10
g22
sasg15
(lp5718
(dp5719
g5
(lp5720
(dp5721
g8
g9
sg10
g14
sa(dp5722
g8
g13
sg10
g14
sasg15
(lp5723
sg17
S'Amnion'
p5724
sa(dp5725
g5
(lp5726
(dp5727
g8
g9
sg10
g47
sa(dp5728
g8
g13
sg10
g11
sasg15
(lp5729
sg17
S'Chorioamniotic membrane'
p5730
sa(dp5731
g5
(lp5732
(dp5733
g8
g9
sg10
g22
sa(dp5734
g8
g13
sg10
g47
sasg15
(lp5735
sg17
S'Chorionic membrane'
p5736
sa(dp5737
g5
(lp5738
(dp5739
g8
g9
sg10
g22
sa(dp5740
g8
g13
sg10
g14
sasg15
(lp5741
(dp5742
g5
(lp5743
(dp5744
g8
g9
sg10
g47
sa(dp5745
g8
g13
sg10
g11
sasg15
(lp5746
sg17
S'Term placenta'
p5747
sa(dp5748
g5
(lp5749
(dp5750
g8
g9
sg10
g14
sa(dp5751
g8
g13
sg10
g47
sasg15
(lp5752
sg17
S'Decidua placentalis'
p5753
sasg17
S'Placenta'
p5754
sa(dp5755
g5
(lp5756
(dp5757
g8
g9
sg10
g11
sa(dp5758
g8
g13
sg10
g47
sasg15
(lp5759
sg17
S'Trophoblast'
p5760
sa(dp5761
g5
(lp5762
(dp5763
g8
g9
sg10
g14
sa(dp5764
g8
g13
sg10
g14
sasg15
(lp5765
(dp5766
g5
(lp5767
(dp5768
g8
g9
sg10
g22
sa(dp5769
g8
g13
sg10
g11
sasg15
(lp5770
sg17
S'Umbilical cord blood'
p5771
sa(dp5772
g5
(lp5773
(dp5774
g8
g9
sg10
g14
sa(dp5775
g8
g13
sg10
g11
sasg15
(lp5776
(dp5777
g5
(lp5778
(dp5779
g8
g9
sg10
g11
sa(dp5780
g8
g13
sg10
g14
sasg15
(lp5781
sg17
S'Umbilical vein endothelium'
p5782
sasg17
S'Umbilical vein'
p5783
sa(dp5784
g5
(lp5785
(dp5786
g8
g9
sg10
g14
sa(dp5787
g8
g13
sg10
g47
sasg15
(lp5788
sg17
S'Umbilical artery'
p5789
sasg17
S'Umbilical cord'
p5790
sa(dp5791
g5
(lp5792
(dp5793
g8
g9
sg10
g22
sa(dp5794
g8
g13
sg10
g11
sasg15
(lp5795
sg17
S'Yolk sac'
p5796
sasg17
S'Extraembryonic tissue'
p5797
sa(dp5798
g5
(lp5799
(dp5800
g8
g9
sg10
g11
sa(dp5801
g8
g13
sg10
g22
sasg15
(lp5802
(dp5803
g5
(lp5804
(dp5805
g8
g9
sg10
g14
sa(dp5806
g8
g13
sg10
g47
sasg15
(lp5807
sg17
S'Fetal tissue'
p5808
sa(dp5809
g5
(lp5810
(dp5811
g8
g9
sg10
g14
sa(dp5812
g8
g13
sg10
g47
sasg15
(lp5813
(dp5814
g5
(lp5815
(dp5816
g8
g9
sg10
g47
sa(dp5817
g8
g13
sg10
g14
sasg15
(lp5818
(dp5819
g5
(lp5820
(dp5821
g8
g9
sg10
g47
sa(dp5822
g8
g13
sg10
g11
sasg15
(lp5823
sg17
S'Neuroectoderm'
p5824
sasg17
S'Ectoderm'
p5825
sa(dp5826
g5
(lp5827
(dp5828
g8
g9
sg10
g11
sa(dp5829
g8
g13
sg10
g11
sasg15
(lp5830
sg17
S'Endoderm'
p5831
sa(dp5832
g5
(lp5833
(dp5834
g8
g9
sg10
g14
sa(dp5835
g8
g13
sg10
g11
sasg15
(lp5836
sg17
S'Mesoderm'
p5837
sasg17
S'Embryonic tissue'
p5838
sasg17
S'Developmental tissue'
p5839
sa(dp5840
g5
(lp5841
(dp5842
g8
g9
sg10
g11
sa(dp5843
g8
g13
sg10
g22
sasg15
(lp5844
(dp5845
g5
(lp5846
(dp5847
g8
g9
sg10
g47
sa(dp5848
g8
g13
sg10
g47
sasg15
(lp5849
(dp5850
g5
(lp5851
(dp5852
g8
g9
sg10
g11
sa(dp5853
g8
g13
sg10
g14
sasg15
(lp5854
sg17
g642
sa(dp5855
g5
(lp5856
(dp5857
g8
g9
sg10
g14
sa(dp5858
g8
g13
sg10
g22
sasg15
(lp5859
(dp5860
g5
(lp5861
(dp5862
g8
g9
sg10
g22
sa(dp5863
g8
g13
sg10
g22
sasg15
(lp5864
sg17
S'Myelencephalon'
p5865
sasg17
S'Embryonic rhombencephalon'
p5866
sa(dp5867
g5
(lp5868
(dp5869
g8
g9
sg10
g47
sa(dp5870
g8
g13
sg10
g47
sasg15
(lp5871
sg17
S'Embryonic cerebral cortex'
p5872
sasg17
S'Embryonic brain'
p5873
sa(dp5874
g5
(lp5875
(dp5876
g8
g9
sg10
g47
sa(dp5877
g8
g13
sg10
g11
sasg15
(lp5878
sg17
g498
sa(dp5879
g5
(lp5880
(dp5881
g8
g9
sg10
g22
sa(dp5882
g8
g13
sg10
g22
sasg15
(lp5883
(dp5884
g5
(lp5885
(dp5886
g8
g9
sg10
g11
sa(dp5887
g8
g13
sg10
g14
sasg15
(lp5888
sg17
S'Embryonic tongue'
p5889
sa(dp5890
g5
(lp5891
(dp5892
g8
g9
sg10
g11
sa(dp5893
g8
g13
sg10
g11
sasg15
(lp5894
sg17
S'Embryonic maxilla'
p5895
sasg17
S'Embryonic head'
p5896
sa(dp5897
g5
(lp5898
(dp5899
g8
g9
sg10
g11
sa(dp5900
g8
g13
sg10
g14
sasg15
(lp5901
(dp5902
g5
(lp5903
(dp5904
g8
g9
sg10
g14
sa(dp5905
g8
g13
sg10
g11
sasg15
(lp5906
sg17
S'Aortico-pulmonary septum'
p5907
sasg17
S'Embryonic heart'
p5908
sa(dp5909
g5
(lp5910
(dp5911
g8
g9
sg10
g14
sa(dp5912
g8
g13
sg10
g11
sasg15
(lp5913
(dp5914
g5
(lp5915
(dp5916
g8
g9
sg10
g47
sa(dp5917
g8
g13
sg10
g22
sasg15
(lp5918
sg17
S'Mesonephros'
p5919
sasg17
S'Embryonic kidney'
p5920
sa(dp5921
g5
(lp5922
(dp5923
g8
g9
sg10
g11
sa(dp5924
g8
g13
sg10
g47
sasg15
(lp5925
sg17
S'Embryonic liver'
p5926
sa(dp5927
g5
(lp5928
(dp5929
g8
g9
sg10
g47
sa(dp5930
g8
g13
sg10
g14
sasg15
(lp5931
(dp5932
g5
(lp5933
(dp5934
g8
g9
sg10
g11
sa(dp5935
g8
g13
sg10
g11
sasg15
(lp5936
sg17
g497
sasg17
S'Embryonic lung'
p5937
sa(dp5938
g5
(lp5939
(dp5940
g8
g9
sg10
g22
sa(dp5941
g8
g13
sg10
g22
sasg15
(lp5942
sg17
S'Embryonic spinal cord'
p5943
sa(dp5944
g5
(lp5945
(dp5946
g8
g9
sg10
g11
sa(dp5947
g8
g13
sg10
g14
sasg15
(lp5948
sg17
g329
sa(dp5949
g5
(lp5950
(dp5951
g8
g9
sg10
g11
sa(dp5952
g8
g13
sg10
g22
sasg15
(lp5953
sg17
S'Embryonic testis'
p5954
sa(dp5955
g5
(lp5956
(dp5957
g8
g9
sg10
g11
sa(dp5958
g8
g13
sg10
g47
sasg15
(lp5959
sg17
S'Embryonic pharynx'
p5960
sa(dp5961
g5
(lp5962
(dp5963
g8
g9
sg10
g47
sa(dp5964
g8
g13
sg10
g22
sasg15
(lp5965
sg17
g5838
sa(dp5966
g5
(lp5967
(dp5968
g8
g9
sg10
g11
sa(dp5969
g8
g13
sg10
g47
sasg15
(lp5970
(dp5971
g5
(lp5972
(dp5973
g8
g9
sg10
g47
sa(dp5974
g8
g13
sg10
g11
sasg15
(lp5975
sg17
S'Neural tube'
p5976
sa(dp5977
g5
(lp5978
(dp5979
g8
g9
sg10
g47
sa(dp5980
g8
g13
sg10
g22
sasg15
(lp5981
(dp5982
g5
(lp5983
(dp5984
g8
g9
sg10
g11
sa(dp5985
g8
g13
sg10
g22
sasg15
(lp5986
sg17
g5760
sasg17
S'Blastocyst'
p5987
sa(dp5988
g5
(lp5989
(dp5990
g8
g9
sg10
g22
sa(dp5991
g8
g13
sg10
g22
sasg15
(lp5992
sg17
S'Neural crest'
p5993
sa(dp5994
g5
(lp5995
(dp5996
g8
g9
sg10
g22
sa(dp5997
g8
g13
sg10
g14
sasg15
(lp5998
sg17
S'Notochord'
p5999
sa(dp6000
g5
(lp6001
(dp6002
g8
g9
sg10
g47
sa(dp6003
g8
g13
sg10
g11
sasg15
(lp6004
sg17
S'First arch'
p6005
sasg17
S'Embryonic structure'
p6006
sa(dp6007
g5
(lp6008
(dp6009
g8
g9
sg10
g22
sa(dp6010
g8
g13
sg10
g22
sasg15
(lp6011
sg17
S'Embryonic thyroid'
p6012
sa(dp6013
g5
(lp6014
(dp6015
g8
g9
sg10
g14
sa(dp6016
g8
g13
sg10
g47
sasg15
(lp6017
sg17
S'Para-aortic splanchnopleura'
p6018
sasg17
S'Embryo'
p6019
sa(dp6020
g5
(lp6021
(dp6022
g8
g9
sg10
g14
sa(dp6023
g8
g13
sg10
g47
sasg15
(lp6024
(dp6025
g5
(lp6026
(dp6027
g8
g9
sg10
g47
sa(dp6028
g8
g13
sg10
g22
sasg15
(lp6029
sg17
S'Fetal esophagus'
p6030
sa(dp6031
g5
(lp6032
(dp6033
g8
g9
sg10
g11
sa(dp6034
g8
g13
sg10
g14
sasg15
(lp6035
(dp6036
g5
(lp6037
(dp6038
g8
g9
sg10
g22
sa(dp6039
g8
g13
sg10
g11
sasg15
(lp6040
sg17
S'Fetal bone marrow'
p6041
sa(dp6042
g5
(lp6043
(dp6044
g8
g9
sg10
g11
sa(dp6045
g8
g13
sg10
g11
sasg15
(lp6046
sg17
S'Fetal sternum'
p6047
sasg17
S'Fetal bone'
p6048
sa(dp6049
g5
(lp6050
(dp6051
g8
g9
sg10
g22
sa(dp6052
g8
g13
sg10
g22
sasg15
(lp6053
(dp6054
g5
(lp6055
(dp6056
g8
g9
sg10
g14
sa(dp6057
g8
g13
sg10
g11
sasg15
(lp6058
sg17
S'Fetal cochlea'
p6059
sasg17
S'Fetal ear'
p6060
sa(dp6061
g5
(lp6062
(dp6063
g8
g9
sg10
g14
sa(dp6064
g8
g13
sg10
g14
sasg15
(lp6065
sg17
S'Fetal pituitary gland'
p6066
sa(dp6067
g5
(lp6068
(dp6069
g8
g9
sg10
g22
sa(dp6070
g8
g13
sg10
g22
sasg15
(lp6071
sg17
g5808
sa(dp6072
g5
(lp6073
(dp6074
g8
g9
sg10
g47
sa(dp6075
g8
g13
sg10
g22
sasg15
(lp6076
sg17
S'Fetal ovary'
p6077
sa(dp6078
g5
(lp6079
(dp6080
g8
g9
sg10
g22
sa(dp6081
g8
g13
sg10
g14
sasg15
(lp6082
(dp6083
g5
(lp6084
(dp6085
g8
g9
sg10
g47
sa(dp6086
g8
g13
sg10
g11
sasg15
(lp6087
sg17
S'Fetal small intestine'
p6088
sasg17
S'Fetal intestine'
p6089
sa(dp6090
g5
(lp6091
(dp6092
g8
g9
sg10
g22
sa(dp6093
g8
g13
sg10
g14
sasg15
(lp6094
sg17
S'Fetal adrenal gland'
p6095
sa(dp6096
g5
(lp6097
(dp6098
g8
g9
sg10
g11
sa(dp6099
g8
g13
sg10
g22
sasg15
(lp6100
sg17
g504
sa(dp6101
g5
(lp6102
(dp6103
g8
g9
sg10
g11
sa(dp6104
g8
g13
sg10
g14
sasg15
(lp6105
sg17
g510
sa(dp6106
g5
(lp6107
(dp6108
g8
g9
sg10
g22
sa(dp6109
g8
g13
sg10
g47
sasg15
(lp6110
(dp6111
g5
(lp6112
(dp6113
g8
g9
sg10
g22
sa(dp6114
g8
g13
sg10
g22
sasg15
(lp6115
sg17
S'Fetal dura mater'
p6116
sa(dp6117
g5
(lp6118
(dp6119
g8
g9
sg10
g14
sa(dp6120
g8
g13
sg10
g14
sasg15
(lp6121
sg17
S'Fetal hypothalamus'
p6122
sa(dp6123
g5
(lp6124
(dp6125
g8
g9
sg10
g14
sa(dp6126
g8
g13
sg10
g22
sasg15
(lp6127
(dp6128
g5
(lp6129
(dp6130
g8
g9
sg10
g14
sa(dp6131
g8
g13
sg10
g22
sasg15
(lp6132
sg17
S'Fetal cerebral cortex'
p6133
sa(dp6134
g5
(lp6135
(dp6136
g8
g9
sg10
g14
sa(dp6137
g8
g13
sg10
g47
sasg15
(lp6138
sg17
S'Fetal frontal lobe'
p6139
sa(dp6140
g5
(lp6141
(dp6142
g8
g9
sg10
g14
sa(dp6143
g8
g13
sg10
g11
sasg15
(lp6144
sg17
S'Fetal hippocampus'
p6145
sasg17
S'Fetal telencephalon'
p6146
sasg17
S'Fetal brain'
p6147
sa(dp6148
g5
(lp6149
(dp6150
g8
g9
sg10
g47
sa(dp6151
g8
g13
sg10
g14
sasg15
(lp6152
sg17
S'Fetal cartilage'
p6153
sa(dp6154
g5
(lp6155
(dp6156
g8
g9
sg10
g22
sa(dp6157
g8
g13
sg10
g47
sasg15
(lp6158
sg17
S'Fetal colon'
p6159
sa(dp6160
g5
(lp6161
(dp6162
g8
g9
sg10
g11
sa(dp6163
g8
g13
sg10
g47
sasg15
(lp6164
(dp6165
g5
(lp6166
(dp6167
g8
g9
sg10
g11
sa(dp6168
g8
g13
sg10
g47
sasg15
(lp6169
sg17
S'Fetal retina'
p6170
sasg17
S'Fetal eye'
p6171
sa(dp6172
g5
(lp6173
(dp6174
g8
g9
sg10
g22
sa(dp6175
g8
g13
sg10
g22
sasg15
(lp6176
sg17
g522
sa(dp6177
g5
(lp6178
(dp6179
g8
g9
sg10
g22
sa(dp6180
g8
g13
sg10
g47
sasg15
(lp6181
sg17
S'Fetal heart'
p6182
sa(dp6183
g5
(lp6184
(dp6185
g8
g9
sg10
g11
sa(dp6186
g8
g13
sg10
g22
sasg15
(lp6187
sg17
S'Fetal kidney'
p6188
sa(dp6189
g5
(lp6190
(dp6191
g8
g9
sg10
g14
sa(dp6192
g8
g13
sg10
g11
sasg15
(lp6193
sg17
S'Fetal liver'
p6194
sa(dp6195
g5
(lp6196
(dp6197
g8
g9
sg10
g22
sa(dp6198
g8
g13
sg10
g22
sasg15
(lp6199
(dp6200
g5
(lp6201
(dp6202
g8
g9
sg10
g11
sa(dp6203
g8
g13
sg10
g47
sasg15
(lp6204
sg17
g521
sasg17
S'Fetal lung'
p6205
sa(dp6206
g5
(lp6207
(dp6208
g8
g9
sg10
g22
sa(dp6209
g8
g13
sg10
g14
sasg15
(lp6210
(dp6211
g5
(lp6212
(dp6213
g8
g9
sg10
g22
sa(dp6214
g8
g13
sg10
g14
sasg15
(lp6215
sg17
S'Fetal skeletal muscle'
p6216
sasg17
S'Fetal muscle'
p6217
sa(dp6218
g5
(lp6219
(dp6220
g8
g9
sg10
g22
sa(dp6221
g8
g13
sg10
g47
sasg15
(lp6222
sg17
S'Fetal pancreas'
p6223
sa(dp6224
g5
(lp6225
(dp6226
g8
g9
sg10
g47
sa(dp6227
g8
g13
sg10
g47
sasg15
(lp6228
sg17
S'Fetal skin'
p6229
sa(dp6230
g5
(lp6231
(dp6232
g8
g9
sg10
g22
sa(dp6233
g8
g13
sg10
g47
sasg15
(lp6234
sg17
S'Fetal spinal cord'
p6235
sa(dp6236
g5
(lp6237
(dp6238
g8
g9
sg10
g11
sa(dp6239
g8
g13
sg10
g14
sasg15
(lp6240
sg17
S'Fetal spleen'
p6241
sa(dp6242
g5
(lp6243
(dp6244
g8
g9
sg10
g47
sa(dp6245
g8
g13
sg10
g22
sasg15
(lp6246
sg17
S'Fetal testis'
p6247
sa(dp6248
g5
(lp6249
(dp6250
g8
g9
sg10
g14
sa(dp6251
g8
g13
sg10
g11
sasg15
(lp6252
sg17
S'Fetal thymus'
p6253
sasg17
S'Fetus'
p6254
sasg17
S'Gestational structure'
p6255
sa(dp6256
g5
(lp6257
(dp6258
g8
g9
sg10
g11
sa(dp6259
g8
g13
sg10
g11
sasg15
(lp6260
(dp6261
g5
(lp6262
(dp6263
g8
g9
sg10
g47
sa(dp6264
g8
g13
sg10
g47
sasg15
(lp6265
(dp6266
g5
(lp6267
(dp6268
g8
g9
sg10
g14
sa(dp6269
g8
g13
sg10
g47
sasg15
(lp6270
sg17
S'Amniotic fluid'
p6271
sa(dp6272
g5
(lp6273
(dp6274
g8
g9
sg10
g11
sa(dp6275
g8
g13
sg10
g14
sasg15
(lp6276
sg17
g5771
sasg17
S'Extraembryonic fluid'
p6277
sa(dp6278
g5
(lp6279
(dp6280
g8
g9
sg10
g11
sa(dp6281
g8
g13
sg10
g47
sasg15
(lp6282
(dp6283
g5
(lp6284
(dp6285
g8
g9
sg10
g22
sa(dp6286
g8
g13
sg10
g47
sasg15
(lp6287
sg17
g4280
sasg17
S'Mucus'
p6288
sa(dp6289
g5
(lp6290
(dp6291
g8
g9
sg10
g11
sa(dp6292
g8
g13
sg10
g47
sasg15
(lp6293
sg17
g2176
sa(dp6294
g5
(lp6295
(dp6296
g8
g9
sg10
g14
sa(dp6297
g8
g13
sg10
g11
sasg15
(lp6298
sg17
g2182
sa(dp6299
g5
(lp6300
(dp6301
g8
g9
sg10
g14
sa(dp6302
g8
g13
sg10
g47
sasg15
(lp6303
sg17
g2194
sa(dp6304
g5
(lp6305
(dp6306
g8
g9
sg10
g47
sa(dp6307
g8
g13
sg10
g47
sasg15
(lp6308
(dp6309
g5
(lp6310
(dp6311
g8
g9
sg10
g14
sa(dp6312
g8
g13
sg10
g47
sasg15
(lp6313
(dp6314
g5
(lp6315
(dp6316
g8
g9
sg10
g11
sa(dp6317
g8
g13
sg10
g22
sasg15
(lp6318
sg17
g1042
sa(dp6319
g5
(lp6320
(dp6321
g8
g9
sg10
g47
sa(dp6322
g8
g13
sg10
g47
sasg15
(lp6323
sg17
g796
sasg17
S'Peripheral blood cell'
p6324
sa(dp6325
g5
(lp6326
(dp6327
g8
g9
sg10
g47
sa(dp6328
g8
g13
sg10
g22
sasg15
(lp6329
(dp6330
g5
(lp6331
(dp6332
g8
g9
sg10
g47
sa(dp6333
g8
g13
sg10
g22
sasg15
(lp6334
sg17
S'Serum'
p6335
sasg17
S'Plasma'
p6336
sasg17
g2486
sa(dp6337
g5
(lp6338
(dp6339
g8
g9
sg10
g47
sa(dp6340
g8
g13
sg10
g11
sasg15
(lp6341
sg17
g3879
sa(dp6342
g5
(lp6343
(dp6344
g8
g9
sg10
g47
sa(dp6345
g8
g13
sg10
g11
sasg15
(lp6346
sg17
g4637
sa(dp6347
g5
(lp6348
(dp6349
g8
g9
sg10
g11
sa(dp6350
g8
g13
sg10
g14
sasg15
(lp6351
(dp6352
g5
(lp6353
(dp6354
g8
g9
sg10
g11
sa(dp6355
g8
g13
sg10
g47
sasg15
(lp6356
sg17
S'Colostrum'
p6357
sasg17
g4717
sa(dp6358
g5
(lp6359
(dp6360
g8
g9
sg10
g22
sa(dp6361
g8
g13
sg10
g11
sasg15
(lp6362
sg17
g2902
sa(dp6363
g5
(lp6364
(dp6365
g8
g9
sg10
g14
sa(dp6366
g8
g13
sg10
g11
sasg15
(lp6367
sg17
g4723
sa(dp6368
g5
(lp6369
(dp6370
g8
g9
sg10
g11
sa(dp6371
g8
g13
sg10
g22
sasg15
(lp6372
(dp6373
g5
(lp6374
(dp6375
g8
g9
sg10
g22
sa(dp6376
g8
g13
sg10
g14
sasg15
(lp6377
sg17
S'Seminal plasma'
p6378
sa(dp6379
g5
(lp6380
(dp6381
g8
g9
sg10
g47
sa(dp6382
g8
g13
sg10
g14
sasg15
(lp6383
sg17
g568
sasg17
g4205
sa(dp6384
g5
(lp6385
(dp6386
g8
g9
sg10
g11
sa(dp6387
g8
g13
sg10
g11
sasg15
(lp6388
sg17
g4465
sa(dp6389
g5
(lp6390
(dp6391
g8
g9
sg10
g11
sa(dp6392
g8
g13
sg10
g22
sasg15
(lp6393
sg17
g3277
sa(dp6394
g5
(lp6395
(dp6396
g8
g9
sg10
g47
sa(dp6397
g8
g13
sg10
g11
sasg15
(lp6398
sg17
g4729
sa(dp6399
g5
(lp6400
(dp6401
g8
g9
sg10
g11
sa(dp6402
g8
g13
sg10
g47
sasg15
(lp6403
sg17
g4602
sa(dp6404
g5
(lp6405
(dp6406
g8
g9
sg10
g22
sa(dp6407
g8
g13
sg10
g14
sasg15
(lp6408
sg17
g2169
sasg17
S'Fluid and secretion'
p6409
sasg17
S'Human anatomical entity'
p6410
sas.